BL51 BANKED LINKER/LOCATER V6.22              10/13/2015  11:10:35  PAGE 1


BL51 BANKED LINKER/LOCATER V6.22, INVOKED BY:
C:\KEIL\C51\BIN\BL51.EXE E:\_KEIL_SOURCE\_GSM_MODEM_ITERIS\Main.obj, BANK1 {E:
>> \_KEIL_SOURCE\_GSM_MODEM_ITERIS\ADC.obj}, BANK1 {E:\_KEIL_SOURCE\_GSM_MODEM
>> _ITERIS\atflash.obj}, BANK2 {E:\_KEIL_SOURCE\_GSM_MODEM_ITERIS\io.obj}, BAN
>> K2 {E:\_KEIL_SOURCE\_GSM_MODEM_ITERIS\rele.obj}, BANK2 {E:\_KEIL_SOURCE\_GS
>> M_MODEM_ITERIS\SENSOR.obj}, BANK2 {E:\_KEIL_SOURCE\_GSM_MODEM_ITERIS\Siem_s
>> ms.obj}, BANK3 {E:\_KEIL_SOURCE\_GSM_MODEM_ITERIS\config.obj}, E:\_KEIL_SOU
>> RCE\_GSM_MODEM_ITERIS\interrupt.obj, BANK1 {E:\_KEIL_SOURCE\_GSM_MODEM_ITER
>> IS\rmodem.obj}, BANK1 {E:\_KEIL_SOURCE\_GSM_MODEM_ITERIS\uart.obj}, BANK1 {
>> E:\_KEIL_SOURCE\_GSM_MODEM_ITERIS\ds18b20.obj}, BANK3 {E:\_KEIL_SOURCE\_GSM
>> _MODEM_ITERIS\gprs\setting.obj}, BANK3 {E:\_KEIL_SOURCE\_GSM_MODEM_ITERIS\g
>> prs\gprs.obj}, BANK3 {E:\_KEIL_SOURCE\_GSM_MODEM_ITERIS\gprs\http.obj}, BAN
>> K1 {E:\_KEIL_SOURCE\_GSM_MODEM_ITERIS\kod8.obj}, E:\_KEIL_SOURCE\_GSM_MODEM
>> _ITERIS\L51_BANK.obj, E:\_KEIL_SOURCE\_GSM_MODEM_ITERIS\STARTUP.obj TO E:\_
>> KEIL_SOURCE\_GSM_MODEM_ITERIS\k8tse RS (256) PL (68) PW (78) CO (2800H) IX 
>> BANKAREA (8000H, 0FFFFH)


MEMORY MODEL: SMALL WITH FLOATING POINT ARITHMETIC


INPUT MODULES INCLUDED:
  E:\_KEIL_SOURCE\_GSM_MODEM_ITERIS\Main.obj (MAIN)
  E:\_KEIL_SOURCE\_GSM_MODEM_ITERIS\ADC.obj (ADC)
  E:\_KEIL_SOURCE\_GSM_MODEM_ITERIS\atflash.obj (ATFLASH)
  E:\_KEIL_SOURCE\_GSM_MODEM_ITERIS\io.obj (IO)
  E:\_KEIL_SOURCE\_GSM_MODEM_ITERIS\rele.obj (RELE)
  E:\_KEIL_SOURCE\_GSM_MODEM_ITERIS\SENSOR.obj (SENSOR)
  E:\_KEIL_SOURCE\_GSM_MODEM_ITERIS\Siem_sms.obj (SIEM_SMS)
  E:\_KEIL_SOURCE\_GSM_MODEM_ITERIS\config.obj (CONFIG)
  E:\_KEIL_SOURCE\_GSM_MODEM_ITERIS\interrupt.obj (INTERRUPT)
  E:\_KEIL_SOURCE\_GSM_MODEM_ITERIS\rmodem.obj (RMODEM)
  E:\_KEIL_SOURCE\_GSM_MODEM_ITERIS\uart.obj (UART)
  E:\_KEIL_SOURCE\_GSM_MODEM_ITERIS\ds18b20.obj (DS18B20)
  E:\_KEIL_SOURCE\_GSM_MODEM_ITERIS\gprs\setting.obj (SETTING)
  E:\_KEIL_SOURCE\_GSM_MODEM_ITERIS\gprs\gprs.obj (GPRS)
  E:\_KEIL_SOURCE\_GSM_MODEM_ITERIS\gprs\http.obj (HTTP)
  E:\_KEIL_SOURCE\_GSM_MODEM_ITERIS\kod8.obj (KOD8)
  E:\_KEIL_SOURCE\_GSM_MODEM_ITERIS\L51_BANK.obj (?BANK?SWITCHING)
  E:\_KEIL_SOURCE\_GSM_MODEM_ITERIS\STARTUP.obj (?C_STARTUP)
  C:\KEIL\C51\LIB\C51FPS.LIB (?C?FPMUL)
  C:\KEIL\C51\LIB\C51FPS.LIB (?C?FPDIV)
  C:\KEIL\C51\LIB\C51FPS.LIB (?C?FPCMP)
  C:\KEIL\C51\LIB\C51FPS.LIB (?C?FCAST)
  C:\KEIL\C51\LIB\C51FPS.LIB (?C?CASTF)
  C:\KEIL\C51\LIB\C51FPS.LIB (?C?FPGETOPN)
  C:\KEIL\C51\LIB\C51S.LIB (?C_INIT)
  C:\KEIL\C51\LIB\C51S.LIB (?C?COPY)
  C:\KEIL\C51\LIB\C51S.LIB (?C?CLDPTR)
  C:\KEIL\C51\LIB\C51S.LIB (?C?CLDOPTR)
  C:\KEIL\C51\LIB\C51S.LIB (?C?CILDOPTR)
  C:\KEIL\C51\LIB\C51S.LIB (?C?CSTPTR)
  C:\KEIL\C51\LIB\C51S.LIB (?C?CSTOPTR)
  C:\KEIL\C51\LIB\C51S.LIB (?C?IMUL)
  C:\KEIL\C51\LIB\C51S.LIB (?C?UIDIV)
  C:\KEIL\C51\LIB\C51S.LIB (?C?SIDIV)
  C:\KEIL\C51\LIB\C51S.LIB (?C?IILDX)
  C:\KEIL\C51\LIB\C51S.LIB (?C?ILDIX)
  C:\KEIL\C51\LIB\C51S.LIB (?C?LMUL)
  C:\KEIL\C51\LIB\C51S.LIB (?C?ULDIV)
  C:\KEIL\C51\LIB\C51S.LIB (?C?SLDIV)
  C:\KEIL\C51\LIB\C51S.LIB (?C?LNEG)
  C:\KEIL\C51\LIB\C51S.LIB (?C?ULCMP)
  C:\KEIL\C51\LIB\C51S.LIB (?C?LSTXDATA)
  C:\KEIL\C51\LIB\C51S.LIB (?C?LSTKXDATA)
  C:\KEIL\C51\LIB\C51S.LIB (?C?OFFXADD)
BL51 BANKED LINKER/LOCATER V6.22            10/13/2015  11:10:35  PAGE 2


  C:\KEIL\C51\LIB\C51S.LIB (?C?CCASE)
  C:\KEIL\C51\LIB\C51S.LIB (?C?ICASE)
  C:\KEIL\C51\LIB\C51S.LIB (?C?ICALL)
  C:\KEIL\C51\LIB\C51S.LIB (?C?LIMUL)
  C:\KEIL\C51\LIB\C51S.LIB (TOUPPER)
  C:\KEIL\C51\LIB\C51S.LIB (STRCAT)
  C:\KEIL\C51\LIB\C51S.LIB (STRNCAT)
  C:\KEIL\C51\LIB\C51S.LIB (STRNCMP)
  C:\KEIL\C51\LIB\C51S.LIB (?C?STRCPY)
  C:\KEIL\C51\LIB\C51S.LIB (STRLEN)
  C:\KEIL\C51\LIB\C51S.LIB (STRCHR)
  C:\KEIL\C51\LIB\C51S.LIB (ATOI)
  C:\KEIL\C51\LIB\C51S.LIB (?C?MEMSET)
  C:\KEIL\C51\LIB\C51S.LIB (ISDIGIT)
  C:\KEIL\C51\LIB\C51S.LIB (ISSPACE)


LINK MAP OF MODULE:  E:\_KEIL_SOURCE\_GSM_MODEM_ITERIS\k8tse (MAIN)


            TYPE    BASE      LENGTH    RELOCATION   SEGMENT NAME
            -----------------------------------------------------

            * * * * * * *   D A T A   M E M O R Y   * * * * * * *
            REG     0000H     0008H     ABSOLUTE     "REG BANK 0"
            REG     0008H     0008H     ABSOLUTE     "REG BANK 1"
            REG     0010H     0008H     ABSOLUTE     "REG BANK 2"
            REG     0018H     0008H     ABSOLUTE     "REG BANK 3"
            DATA    0020H     0001H     BIT_ADDR     ?BA?DS18B20
            BIT     0021H.0   0001H.7   UNIT         ?BI?MAIN
            BIT     0022H.7   0001H.5   UNIT         ?BI?SIEM_SMS
            BIT     0024H.4   0001H.2   UNIT         ?BI?DS18B20
            BIT     0025H.6   0000H.6   UNIT         ?BI?IO
            BIT     0026H.4   0000H.3   UNIT         _BIT_GROUP_
            BIT     0026H.7   0000H.2   UNIT         ?BI?RMODEM
            BIT     0027H.1   0000H.1   UNIT         ?BI?ADC
            BIT     0027H.2   0000H.1   UNIT         ?BI?SENSOR
            BIT     0027H.3   0000H.1   UNIT         ?BI?INTERRUPT
            BIT     0027H.4   0000H.1   UNIT         ?BI?UART
            BIT     0027H.5   0000H.1   UNIT         ?BI?KOD8
                    0027H.6   0000H.2                *** GAP ***
            DATA    0028H     0013H     UNIT         _DATA_GROUP_
            DATA    003BH     000EH     UNIT         ?DT?MAIN
            DATA    0049H     0005H     UNIT         ?DT?ATFLASH
            DATA    004EH     0004H     UNIT         ?DT?IO
            DATA    0052H     0004H     UNIT         ?DT?SENSOR
            DATA    0056H     0004H     UNIT         ?DT?KOD8
            DATA    005AH     0002H     UNIT         ?DT?RMODEM
            DATA    005CH     0001H     UNIT         ?DT?RELE
            DATA    005DH     0001H     UNIT         ?DT?DS18B20
            DATA    005EH     0001H     UNIT         ?DT?GPRS
            DATA    005FH     0001H     UNIT         ?BANK?DATA
            IDATA   0060H     0001H     UNIT         ?STACK

            * * * * * * *  X D A T A   M E M O R Y  * * * * * * *
            XDATA   0000H     09E7H     UNIT         ?XD?MAIN
            XDATA   09E7H     05B7H     UNIT         ?XD?UART
            XDATA   0F9EH     0412H     UNIT         ?XD?SIEM_SMS
            XDATA   13B0H     031CH     UNIT         ?XD?KOD8
            XDATA   16CCH     0282H     UNIT         ?XD?HTTP
            XDATA   194EH     01C6H     UNIT         ?XD?GPRS
            XDATA   1B14H     00B0H     UNIT         ?XD?IO
            XDATA   1BC4H     00A6H     UNIT         _XDATA_GROUP_
            XDATA   1C6AH     0048H     UNIT         ?XD?RELE
            XDATA   1CB2H     0033H     UNIT         ?XD?SENSOR
BL51 BANKED LINKER/LOCATER V6.22            10/13/2015  11:10:35  PAGE 3


            XDATA   1CE5H     0029H     UNIT         ?XD?RMODEM
            XDATA   1D0EH     0017H     UNIT         ?XD?ADC
            XDATA   1D25H     0012H     UNIT         ?XD?DS18B20
            XDATA   1D37H     000BH     UNIT         ?XD?ATFLASH
            XDATA   1D42H     0005H     UNIT         ?XD?INTERRUPT

            * * * * * * *   C O D E   M E M O R Y   * * * * * * *
            CODE    0000H     0003H     ABSOLUTE     
                    0003H     0010H                  *** GAP ***
            CODE    0013H     0003H     ABSOLUTE     
                    0016H     000DH                  *** GAP ***
            CODE    0023H     0003H     ABSOLUTE     
                    0026H     0005H                  *** GAP ***
            CODE    002BH     0003H     ABSOLUTE     
                    002EH     0005H                  *** GAP ***
            CODE    0033H     0003H     ABSOLUTE     
                    0036H     003DH                  *** GAP ***
            CODE    0073H     0003H     ABSOLUTE     
                    0076H     002DH                  *** GAP ***
            CODE    00A3H     0003H     ABSOLUTE     
                    00A6H     1F6CH                  *** GAP ***
            CODE    2012H     0008H     ABSOLUTE     
            CODE    201AH     0040H     ABSOLUTE     
                    205AH     0054H                  *** GAP ***
            CODE    20AEH     0010H     ABSOLUTE     
            CODE    20BEH     0010H     ABSOLUTE     
            CODE    20CEH     0004H     ABSOLUTE     
                    20D2H     0004H                  *** GAP ***
            CODE    20D6H     0002H     ABSOLUTE     
            CODE    20D8H     0001H     ABSOLUTE     
            CODE    20D9H     0001H     ABSOLUTE     
            CODE    20DAH     0002H     ABSOLUTE     
                    20DCH     0724H                  *** GAP ***
            CODE    2800H     0A21H     UNIT         ?PR?MAIN?MAIN
            CODE    3221H     08D8H     UNIT         ?C_INITSEG
            CODE    3AF9H     086AH     UNIT         ?C?LIB_CODE
            CODE    4363H     080FH     UNIT         ?PR?AUTOMAT_REQUEST?MAIN
            CODE    4B72H     055BH     UNIT         ?PR?MAIN
            CODE    50CDH     03B4H     UNIT         ?PR?OPENDEVICEPROFILE?MAI
>> N
            CODE    5481H     0314H     UNIT         ?PR?AUTOMAT_ALARM?MAIN
            CODE    5795H     0251H     UNIT         ?CO?SIEM_SMS
            CODE    59E6H     01C4H     UNIT         ?PR?TIMER2INT?INTERRUPT
            CODE    5BAAH     01ADH     UNIT         ?PR?AUTOMAT_SEARCH?MAIN
            CODE    5D57H     019FH     UNIT         ?PR?AUTOMAT__RA?MAIN
            CODE    5EF6H     00E2H     UNIT         ?PR?AUTOMAT_LEDS?MAIN
            CODE    5FD8H     001CH     UNIT         ?PR?_STRCHR?STRCHR
            CODE    5FF4H     000CH     UNIT         ?BANK?SELECT
            CODE    6000H     0153H     PAGE         ?BANK?SWITCH
            CODE    6153H     012FH     UNIT         ?PR?ATFLASHINT?INTERRUPT
            CODE    6282H     00CDH     UNIT         ?PR?GETFDMASK?MAIN
            CODE    634FH     00BEH     UNIT         ?PR?TIMER3_VLAN_ISR?INTER
>> RUPT
            CODE    640DH     00AEH     UNIT         ?PR?_ATOI?ATOI
            CODE    64BBH     00AAH     UNIT         ?PR?UART0_INTR?INTERRUPT
            CODE    6565H     00A8H     UNIT         ?CO?IO
            CODE    660DH     00A8H     UNIT         ?CO?HTTP
            CODE    66B5H     009AH     UNIT         ?PR?UART1_INTR?INTERRUPT
            CODE    674FH     008FH     UNIT         ?C_C51STARTUP
            CODE    67DEH     008DH     UNIT         ?PR?WRITEOUTPUTDATA?MAIN
            CODE    686BH     0089H     UNIT         ?PR?_STRNCAT?STRNCAT
            CODE    68F4H     007BH     UNIT         ?PR?MAX_ISR?INTERRUPT
            CODE    696FH     006FH     UNIT         ?PR?INTERRUPT
            CODE    69DEH     006FH     UNIT         ?PR?_STRNCMP?STRNCMP
            CODE    6A4DH     005EH     UNIT         ?PR?WRITESCRATCHPAD1?MAIN
BL51 BANKED LINKER/LOCATER V6.22            10/13/2015  11:10:35  PAGE 4


>> 
            CODE    6AABH     0058H     UNIT         ?PR?_STRCAT?STRCAT
            CODE    6B03H     0055H     UNIT         ?PR?_WRITEFLASH?MAIN
            CODE    6B58H     004FH     UNIT         ?CO?KOD8
            CODE    6BA7H     0044H     UNIT         ?C?LDIV
            CODE    6BEBH     0041H     UNIT         ?PR?SETRDSEARCHRA?MAIN
            CODE    6C2CH     003DH     UNIT         ?PR?TEST_IN_CS?MAIN
            CODE    6C69H     003CH     UNIT         ?PR?SETRDSEARCH?MAIN
            CODE    6CA5H     0038H     UNIT         ?CO?GPRS
            CODE    6CDDH     0033H     UNIT         ?PR?_READFLASH?MAIN
            CODE    6D10H     0033H     UNIT         ?PR?READSCRATCHPAD1?MAIN
            CODE    6D43H     002EH     UNIT         ?CO?MAIN
            CODE    6D71H     0015H     UNIT         ?PR?_STRLEN?STRLEN
            CODE    6D86H     0014H     UNIT         ?CO?CONFIG
            CODE    6D9AH     0013H     UNIT         ?PR?_ISSPACE?ISSPACE
            CODE    6DADH     0011H     UNIT         ?PR?_TOUPPER?TOUPPER
            CODE    6DBEH     000FH     UNIT         ?PR?_ISDIGIT?ISDIGIT
            CODE    6DCDH     000AH     UNIT         ?PR?RESET_STATE_LOG?MAIN
            CODE    6DD7H     000AH     UNIT         ?PR?CALL_PROGRAM_RESET?MA
>> IN
            CODE    6DE1H     0001H     UNIT         ?PR?INIT_LIMITS_DATA?MAIN
>> 

            * * * * * * *   C O D E   B A N K   1   * * * * * * *
                    0000H     8000H                  *** GAP ***
            BANK1   8000H     082FH     UNIT         ?PR?AUTOMAT_RMODEM?RMODEM
>> 
            BANK1   882FH     0259H     UNIT         ?PR?AUTOMAT_LAN?DS18B20
            BANK1   8A88H     020CH     UNIT         ?PR?AUTOMAT_K8?KOD8
            BANK1   8C94H     01FFH     UNIT         ?PR?MACHINEITERIS?KOD8
            BANK1   8E93H     014BH     UNIT         ?PR?RMODEM
            BANK1   8FDEH     00E2H     UNIT         ?PR?FINISHCONVERTADC?ADC
            BANK1   90C0H     00E1H     UNIT         ?PR?INITAF?ATFLASH
            BANK1   91A1H     00E1H     UNIT         ?PR?_ANALISESTREAM?KOD8
            BANK1   9282H     00BFH     UNIT         ?PR?_CPYITERISDATA?KOD8
            BANK1   9341H     00BCH     UNIT         ?PR?AUTOMAT_VLAN?DS18B20
            BANK1   93FDH     00B5H     UNIT         ?PR?WRITEAF?ATFLASH
            BANK1   94B2H     009CH     UNIT         ?PR?_TRANSMITCOMMAND?KOD8
>> 
            BANK1   954EH     0099H     UNIT         ?PR?_RECEIVESTRITERIS?KOD
>> 8
            BANK1   95E7H     007DH     UNIT         ?PR?SEND_MAX?UART
            BANK1   9664H     0075H     UNIT         ?PR?FREE_OUTPUT_STREAM?RM
>> ODEM
            BANK1   96D9H     006EH     UNIT         ?PR?_GET_SN_SMS?RMODEM
            BANK1   9747H     006AH     UNIT         ?PR?ATFLASH
            BANK1   97B1H     0067H     UNIT         ?PR?KOD8
            BANK1   9818H     0059H     UNIT         ?PR?_RECEIVERITERIS?KOD8
            BANK1   9871H     0047H     UNIT         ?PR?DS18B20
            BANK1   98B8H     0044H     UNIT         ?PR?_CRC_8_LAN?DS18B20
            BANK1   98FCH     0042H     UNIT         ?PR?SEND_CHAR_UART0?UART
            BANK1   993EH     0041H     UNIT         ?PR?_SENDSTRINGUART0?UART
>> 
            BANK1   997FH     0040H     UNIT         ?PR?SEND_CHAR_UART1?UART
            BANK1   99BFH     0040H     UNIT         ?PR?_SENDSTRINGUART1?UART
>> 
            BANK1   99FFH     0040H     UNIT         ?PR?RECEIVE_CHAR_MAX?UART
>> 
            BANK1   9A3FH     003BH     UNIT         ?PR?UART
            BANK1   9A7AH     003AH     UNIT         ?PR?READ_BYTE_UART0_GPRS?
>> UART
            BANK1   9AB4H     0039H     UNIT         ?PR?READ_BYTE_UART0?UART
            BANK1   9AEDH     0035H     UNIT         ?PR?READ_BYTE_UART1?UART
            BANK1   9B22H     0025H     UNIT         ?PR?_INIT_MAX?UART
            BANK1   9B47H     0023H     UNIT         ?PR?CLEARBUF_UART1?UART
BL51 BANKED LINKER/LOCATER V6.22            10/13/2015  11:10:35  PAGE 5


            BANK1   9B6AH     0022H     UNIT         ?PR?CLEARBUF_UART0?UART
            BANK1   9B8CH     0021H     UNIT         ?PR?HOLDSPI_MAX?UART
            BANK1   9BADH     001FH     UNIT         ?PR?READAF?ATFLASH
            BANK1   9BCCH     001EH     UNIT         ?PR?CLEARBUF_MAX?UART
            BANK1   9BEAH     001BH     UNIT         ?PR?ADC
            BANK1   9C05H     001BH     UNIT         ?PR?HOLDSPI_AF?ATFLASH
            BANK1   9C20H     001BH     UNIT         ?PR?FREE_INPUT_STREAM?RMO
>> DEM
            BANK1   9C3BH     001BH     UNIT         ?PR?FAIL_RESET_RMODEM?RMO
>> DEM
            BANK1   9C56H     0014H     UNIT         ?PR?CHECK_GAP_RMODEM?RMOD
>> EM
            BANK1   9C6AH     0012H     UNIT         ?PR?INIT_LAN?DS18B20
            BANK1   9C7CH     0011H     UNIT         ?PR?STARTCONVERTADC?ADC
            BANK1   9C8DH     0011H     UNIT         ?PR?FREESPI_MAX?UART
            BANK1   9C9EH     000CH     UNIT         ?PR?WAITREADYAF?ATFLASH
            BANK1   9CAAH     000AH     UNIT         ?PR?WAITSPI?ATFLASH
            BANK1   9CB4H     0006H     UNIT         ?PR?MAX_TRANSMIT?UART
            BANK1   9CBAH     0006H     UNIT         ?PR?MAX_RECEIVE?UART
            BANK1   9CC0H     0003H     UNIT         ?PR?INIT_UART0?UART
            BANK1   9CC3H     0003H     UNIT         ?PR?INIT_UART1?UART
            BANK1   9CC6H     0003H     UNIT         ?PR?INIT_K8?KOD8

            * * * * * * *   C O D E   B A N K   2   * * * * * * *
                    0000H     8000H                  *** GAP ***
            BANK2   8000H     0EE7H     UNIT         ?PR?AUTOMAT_SMS_PHONE?SIE
>> M_SMS
            BANK2   8EE7H     0B0FH     UNIT         ?PR?ANALISELINE?SIEM_SMS
            BANK2   99F6H     0811H     UNIT         ?PR?AUTOMAT_INITSIM?SIEM_
>> SMS
            BANK2   A207H     065CH     UNIT         ?PR?_TEST_READ_TEXT?IO
            BANK2   A863H     061DH     UNIT         ?PR?_DO_TXTPACK_S?IO
            BANK2   AE80H     0445H     UNIT         ?PR?IO
            BANK2   B2C5H     0410H     UNIT         ?PR?SIEM_SMS
            BANK2   B6D5H     03ECH     UNIT         ?PR?AUTOMAT_SMS?IO
            BANK2   BAC1H     0319H     UNIT         ?PR?_DO_TXTPACK_N?IO
            BANK2   BDDAH     0255H     UNIT         ?PR?_DO_TXTPACK_V?IO
            BANK2   C02FH     022AH     UNIT         ?PR?_DO_TXTPACK_P?IO
            BANK2   C259H     01EAH     UNIT         ?PR?_GET_HTTP_TIME?SIEM_S
>> MS
            BANK2   C443H     01E6H     UNIT         ?PR?_DO_TXTPACK_T?IO
            BANK2   C629H     01D3H     UNIT         ?PR?TEST_READ_DATA?IO
            BANK2   C7FCH     01A7H     UNIT         ?PR?_DATA_DECODE?IO
            BANK2   C9A3H     017BH     UNIT         ?PR?AUTOMAT_PERSIMWORK?SI
>> EM_SMS
            BANK2   CB1EH     0157H     UNIT         ?PR?RECEIVE_SIM?SIEM_SMS
            BANK2   CC75H     0146H     UNIT         ?PR?AUTOMAT_RELE?RELE
            BANK2   CDBBH     0146H     UNIT         ?PR?GETN?SIEM_SMS
            BANK2   CF01H     012AH     UNIT         ?PR?_DO_PACK_TEL_8B_SMS?S
>> IEM_SMS
            BANK2   D02BH     0124H     UNIT         ?PR?COMMAND_E2IPO?SIEM_SM
>> S
            BANK2   D14FH     0120H     UNIT         ?PR?_UPRRELE?RELE
            BANK2   D26FH     011DH     UNIT         ?PR?_TSTPHONENUM?IO
            BANK2   D38CH     0101H     UNIT         ?PR?_DO_PACK030F?IO
            BANK2   D48DH     00F3H     UNIT         ?PR?PARAM_DEFAULT?IO
            BANK2   D580H     00DFH     UNIT         ?PR?RESTARTTOLOADER?SIEM_
>> SMS
            BANK2   D65FH     00D7H     UNIT         ?PR?_WRITE_TEL_TO_PHONE?S
>> IEM_SMS
            BANK2   D736H     00D4H     UNIT         ?PR?RELE
            BANK2   D80AH     00C7H     UNIT         ?PR?_AUTOMAT_SENSOR_N?SEN
>> SOR
            BANK2   D8D1H     00BAH     UNIT         ?PR?_GETTEL_ASCII_TO_SO?S
>> IEM_SMS
BL51 BANKED LINKER/LOCATER V6.22            10/13/2015  11:10:35  PAGE 6


            BANK2   D98BH     00B9H     UNIT         ?PR?_GETTEL_ATSO_TO_SO?SI
>> EM_SMS
            BANK2   DA44H     00B2H     UNIT         ?PR?_HEX_TO_DECASCII_5?IO
>> 
            BANK2   DAF6H     00AEH     UNIT         ?PR?COMMAND_ENAD1?SIEM_SM
>> S
            BANK2   DBA4H     00A7H     UNIT         ?PR?FILL_BUF_AUTO?IO
            BANK2   DC4BH     00A4H     UNIT         ?PR?TEST_READ_MES?IO
            BANK2   DCEFH     00A2H     UNIT         ?PR?_FULL_BUF_NUM_TEL2?SI
>> EM_SMS
            BANK2   DD91H     0093H     UNIT         ?PR?_GET_NPACK_INC?IO
            BANK2   DE24H     0088H     UNIT         ?PR?_NPACKINC?IO
            BANK2   DEACH     0086H     UNIT         ?PR?ANALISE_TEL_NUM?SIEM_
>> SMS
            BANK2   DF32H     0075H     UNIT         ?PR?GETSTATE?IO
            BANK2   DFA7H     0074H     UNIT         ?PR?INIT_SMS_PHONE?SIEM_S
>> MS
            BANK2   E01BH     0072H     UNIT         ?PR?_COMP_TELNUM?SIEM_SMS
>> 
            BANK2   E08DH     006FH     UNIT         ?PR?_GETTEL_SO_TO_ASCII?S
>> IEM_SMS
            BANK2   E0FCH     006AH     UNIT         ?PR?_FULL_BUF_NUM_TEL?SIE
>> M_SMS
            BANK2   E166H     0064H     UNIT         ?PR?SENSOR
            BANK2   E1CAH     0059H     UNIT         ?PR?INITIALIZE_SENSOR?SEN
>> SOR
            BANK2   E223H     0058H     UNIT         ?PR?_TEST_TEL_TO_PHONE?IO
>> 
            BANK2   E27BH     0057H     UNIT         ?PR?COMMAND_CGDCONT?SIEM_
>> SMS
            BANK2   E2D2H     0055H     UNIT         ?PR?AUTOMAT_IO?IO
            BANK2   E327H     0055H     UNIT         ?PR?_SENSACTION?SENSOR
            BANK2   E37CH     0054H     UNIT         ?PR?_COMMAND_READ_TELDC_S
>> IM?SIEM_SMS
            BANK2   E3D0H     0051H     UNIT         ?PR?_GET_BYTE_FR_ASCII?SI
>> EM_SMS
            BANK2   E421H     0049H     UNIT         ?PR?_COMMAND_DEL_SMS?SIEM
>> _SMS
            BANK2   E46AH     0041H     UNIT         ?PR?FILL_BUF_OLD?IO
            BANK2   E4ABH     0041H     UNIT         ?PR?BREAK_GSM_REQ?IO
            BANK2   E4ECH     003EH     UNIT         ?PR?_GET_NUM_SMS_FR_ASCII
>> ?SIEM_SMS
            BANK2   E52AH     0039H     UNIT         ?PR?_SETBIT?SENSOR
            BANK2   E563H     0039H     UNIT         ?PR?_HEXASCII_TO_HEX?SIEM
>> _SMS
            BANK2   E59CH     0037H     UNIT         ?PR?GET_QUALITY_SIGNAL?SI
>> EM_SMS
            BANK2   E5D3H     0036H     UNIT         ?PR?_SENSFRONTTEST?SENSOR
>> 
            BANK2   E609H     0034H     UNIT         ?PR?INITIALIZE_RELE?RELE
            BANK2   E63DH     0033H     UNIT         ?PR?_DO_PACK53?IO
            BANK2   E670H     0030H     UNIT         ?PR?_HEX_TO_HEXASCII_HI?S
>> IEM_SMS
            BANK2   E6A0H     002FH     UNIT         ?PR?_SEND_MODEM?SIEM_SMS
            BANK2   E6CFH     002DH     UNIT         ?PR?_HEX_TO_HEXASCII_LO?S
>> IEM_SMS
            BANK2   E6FCH     002CH     UNIT         ?PR?_SETSOB?SENSOR
            BANK2   E728H     002CH     UNIT         ?PR?RESTART_PHONE?SIEM_SM
>> S
            BANK2   E754H     0027H     UNIT         ?PR?_SEND_STR_SIM?SIEM_SM
>> S
            BANK2   E77BH     0022H     UNIT         ?PR?SAVETOFLASH?RELE
            BANK2   E79DH     0021H     UNIT         ?PR?COMMAND_CPBS_SM?SIEM_
>> SMS
            BANK2   E7BEH     0021H     UNIT         ?PR?COMMAND_CPMS_SM?SIEM_
BL51 BANKED LINKER/LOCATER V6.22            10/13/2015  11:10:35  PAGE 7


>> SMS
            BANK2   E7DFH     0021H     UNIT         ?PR?COMMAND_ATS10?SIEM_SM
>> S
            BANK2   E800H     0021H     UNIT         ?PR?COMMAND_ATS7?SIEM_SMS
>> 
            BANK2   E821H     0021H     UNIT         ?PR?COMMAND_CNMI?SIEM_SMS
>> 
            BANK2   E842H     0021H     UNIT         ?PR?COMMAND_CBST?SIEM_SMS
>> 
            BANK2   E863H     0021H     UNIT         ?PR?COMMAND_READ_TELSC_SI
>> M?SIEM_SMS
            BANK2   E884H     0021H     UNIT         ?PR?COMMAND_GET_QUALITY_S
>> IGNAL?SIEM_SMS
            BANK2   E8A5H     0021H     UNIT         ?PR?COMMAND_TEST_NETWORK?
>> SIEM_SMS
            BANK2   E8C6H     0021H     UNIT         ?PR?COMMAND_NETWORK_REGIS
>> TRATION?SIEM_SMS
            BANK2   E8E7H     0021H     UNIT         ?PR?COMMAND_GET_READ_SMS?
>> SIEM_SMS
            BANK2   E908H     0021H     UNIT         ?PR?COMMAND_ATAD1?SIEM_SM
>> S
            BANK2   E929H     0021H     UNIT         ?PR?COMMAND_ATAS1?SIEM_SM
>> S
            BANK2   E94AH     0021H     UNIT         ?PR?COMMAND_3P?SIEM_SMS
            BANK2   E96BH     0021H     UNIT         ?PR?COMMAND_ATH?SIEM_SMS
            BANK2   E98CH     0021H     UNIT         ?PR?COMMAND_CHLD_1?SIEM_S
>> MS
            BANK2   E9ADH     0021H     UNIT         ?PR?COMMAND_ATO?SIEM_SMS
            BANK2   E9CEH     0021H     UNIT         ?PR?COMMAND_ATA?SIEM_SMS
            BANK2   E9EFH     0021H     UNIT         ?PR?COMMAND_IDSIM?SIEM_SM
>> S
            BANK2   EA10H     0021H     UNIT         ?PR?COMMAND_E2SMSRI?SIEM_
>> SMS
            BANK2   EA31H     0021H     UNIT         ?PR?COMMAND_E2IPS?SIEM_SM
>> S
            BANK2   EA52H     0021H     UNIT         ?PR?COMMAND_CRC?SIEM_SMS
            BANK2   EA73H     0021H     UNIT         ?PR?COMMAND_CLIP?SIEM_SMS
>> 
            BANK2   EA94H     0021H     UNIT         ?PR?COMMAND_CGCEREP?SIEM_
>> SMS
            BANK2   EAB5H     0021H     UNIT         ?PR?COMMAND_E2IPA?SIEM_SM
>> S
            BANK2   EAD6H     0021H     UNIT         ?PR?COMMAND_CGSMS?SIEM_SM
>> S
            BANK2   EAF7H     001FH     UNIT         ?PR?DELETE_SMS?SIEM_SMS
            BANK2   EB16H     001EH     UNIT         ?PR?AUTOMAT_SENSOR?SENSOR
>> 
            BANK2   EB34H     001CH     UNIT         ?PR?_READ_PORT_SENSOR?SEN
>> SOR
            BANK2   EB50H     001BH     UNIT         ?PR?_RESET_SENSOR?SENSOR
            BANK2   EB6BH     0017H     UNIT         ?PR?RESETSTATE?IO
            BANK2   EB82H     0017H     UNIT         ?PR?READ_NEW_SMS?SIEM_SMS
>> 
            BANK2   EB99H     0016H     UNIT         ?PR?IS_NEW_SMS?SIEM_SMS
            BANK2   EBAFH     0015H     UNIT         ?PR?_ISSENSCHANGE?SENSOR
            BANK2   EBC4H     0011H     UNIT         ?PR?INIT_IO?IO
            BANK2   EBD5H     0011H     UNIT         ?PR?_ASKBIT?SENSOR
            BANK2   EBE6H     000FH     UNIT         ?PR?_SEND_SMS?SIEM_SMS
            BANK2   EBF5H     000DH     UNIT         ?PR?READ_PORT_SENSOR_CUR?
>> SENSOR
            BANK2   EC02H     0007H     UNIT         ?PR?GET_SOST_RELE?RELE
            BANK2   EC09H     0006H     UNIT         ?PR?IS_SMS_SEND_OUT?SIEM_
>> SMS
            BANK2   EC0FH     0003H     UNIT         ?PR?IS_NEW_SMS_8BIT?SIEM_
>> SMS
BL51 BANKED LINKER/LOCATER V6.22            10/13/2015  11:10:35  PAGE 8


            BANK2   EC12H     0003H     UNIT         ?PR?ISNONDELETE_SMS?SIEM_
>> SMS

            * * * * * * *   C O D E   B A N K   3   * * * * * * *
                    0000H     8000H                  *** GAP ***
            BANK3   8000H     02C7H     UNIT         ?PR?AUTOMAT_GPRS_GLOB?GPR
>> S
            BANK3   82C7H     02A6H     UNIT         ?PR?AUTOMAT_GPRS_IN?GPRS
            BANK3   856DH     0184H     UNIT         ?PR?_FORMINGHTTPCONTENT?H
>> TTP
            BANK3   86F1H     016DH     UNIT         ?PR?FORMINGHTTPHEADERS?HT
>> TP
            BANK3   885EH     015FH     UNIT         ?PR?AUTOMAT_HTTP?HTTP
            BANK3   89BDH     0113H     UNIT         ?PR?CONFIG?CONFIG
            BANK3   8AD0H     0097H     UNIT         ?PR?HTTP
            BANK3   8B67H     008EH     UNIT         ?PR?IOSTREAMCONF?HTTP
            BANK3   8BF5H     005FH     UNIT         ?PR?GPRS
            BANK3   8C54H     0040H     UNIT         ?PR?SETOSCSLOWMODE?CONFIG
>> 
            BANK3   8C94H     003AH     UNIT         ?PR?CONFIGOSC?CONFIG
            BANK3   8CCEH     0038H     UNIT         ?PR?AUTOMAT_GPRS_OUT?GPRS
>> 
            BANK3   8D06H     002EH     UNIT         ?PR?_SET_COM_SPEED?CONFIG
>> 
            BANK3   8D34H     0028H     UNIT         ?PR?_SEND_C_OUT_MAX?GPRS
            BANK3   8D5CH     000BH     UNIT         ?PR?DEBUG_GPRS_INIT?GPRS



OVERLAY MAP OF MODULE:   E:\_KEIL_SOURCE\_GSM_MODEM_ITERIS\k8tse (MAIN)


SEGMENT                                             BIT_GROUP          DATA_GR
>> OUP          XDATA_GROUP
  +--> CALLED SEGMENT                            START    LENGTH     START    
>> LENGTH     START    LENGTH
------------------------------------------------------------------------------
>> --------------------------
?PR?UART0_INTR?INTERRUPT                         -----    -----      -----    
>> -----      -----    -----
  +--> ?PR?INTERRUPT

*** NEW ROOT ***************************************************

?PR?UART1_INTR?INTERRUPT                         -----    -----      -----    
>> -----      -----    -----
  +--> ?PR?INTERRUPT

*** NEW ROOT ***************************************************

?PR?MAX_ISR?INTERRUPT                            0026H.4  0000H.1    -----    
>> -----      -----    -----

*** NEW ROOT ***************************************************

?PR?TIMER2INT?INTERRUPT                          -----    -----      -----    
>> -----      -----    -----
  +--> ?PR?INTERRUPT
  +--> ?CO?MAIN

*** NEW ROOT ***************************************************

?PR?ATFLASHINT?INTERRUPT                         -----    -----      -----    
>> -----      -----    -----
  +--> ?PR?INTERRUPT
BL51 BANKED LINKER/LOCATER V6.22            10/13/2015  11:10:35  PAGE 9



*** NEW ROOT ***************************************************

?PR?TIMER3_VLAN_ISR?INTERRUPT                    -----    -----      -----    
>> -----      -----    -----
  +--> ?PR?INTERRUPT

*** NEW ROOT ***************************************************

?C_C51STARTUP                                    -----    -----      -----    
>> -----      -----    -----
  +--> ?PR?MAIN?MAIN
  +--> ?C_INITSEG

?PR?MAIN?MAIN                                    -----    -----      -----    
>> -----      -----    -----
  +--> ?PR?CONFIG?CONFIG
  +--> ?PR?INIT_UART0?UART
  +--> ?PR?INIT_UART1?UART
  +--> ?PR?INIT_K8?KOD8
  +--> ?PR?OPENDEVICEPROFILE?MAIN
  +--> ?PR?INIT_IO?IO
  +--> ?PR?INITIALIZE_SENSOR?SENSOR
  +--> ?PR?INITIALIZE_RELE?RELE
  +--> ?PR?INITAF?ATFLASH
  +--> ?PR?INIT_LAN?DS18B20
  +--> ?PR?DEBUG_GPRS_INIT?GPRS
  +--> ?PR?READSCRATCHPAD1?MAIN
  +--> ?PR?MAIN
  +--> ?PR?WRITESCRATCHPAD1?MAIN
  +--> ?PR?GET_QUALITY_SIGNAL?SIEM_SMS
  +--> ?PR?SEND_MAX?UART
  +--> ?PR?STARTCONVERTADC?ADC
  +--> ?PR?FINISHCONVERTADC?ADC
  +--> ?PR?AUTOMAT_VLAN?DS18B20
  +--> ?PR?AUTOMAT_LAN?DS18B20
  +--> ?PR?AUTOMAT_SENSOR?SENSOR
  +--> ?PR?AUTOMAT_RELE?RELE
  +--> ?PR?AUTOMAT_GPRS_GLOB?GPRS
  +--> ?PR?AUTOMAT_K8?KOD8
  +--> ?PR?AUTOMAT_LEDS?MAIN
  +--> ?PR?GET_SOST_RELE?RELE
  +--> ?PR?WRITEAF?ATFLASH
  +--> ?PR?RESET_STATE_LOG?MAIN
  +--> ?PR?AUTOMAT_SEARCH?MAIN
  +--> ?PR?AUTOMAT_REQUEST?MAIN
  +--> ?PR?AUTOMAT_ALARM?MAIN
  +--> ?PR?AUTOMAT_IO?IO
  +--> ?PR?AUTOMAT_RMODEM?RMODEM

?PR?CONFIG?CONFIG                                -----    -----      -----    
>> -----      -----    -----
  +--> ?PR?CONFIGOSC?CONFIG

?PR?OPENDEVICEPROFILE?MAIN                       0026H.5  0000H.1    0028H    
>> 0002H      1BC4H    0004H
  +--> ?PR?MAIN
  +--> ?PR?INIT_LIMITS_DATA?MAIN
  +--> ?PR?_READFLASH?MAIN
  +--> ?PR?PARAM_DEFAULT?IO
  +--> ?PR?AUTOMAT_VLAN?DS18B20
  +--> ?PR?AUTOMAT_LAN?DS18B20
  +--> ?PR?_CRC_8_LAN?DS18B20
  +--> ?PR?_WRITEFLASH?MAIN

BL51 BANKED LINKER/LOCATER V6.22            10/13/2015  11:10:35  PAGE 10


?PR?MAIN                                         -----    -----      -----    
>> -----      -----    -----
  +--> ?PR?READSCRATCHPAD1?MAIN
  +--> ?PR?WRITESCRATCHPAD1?MAIN

?PR?WRITESCRATCHPAD1?MAIN                        -----    -----      -----    
>> -----      -----    -----
  +--> ?PR?READSCRATCHPAD1?MAIN

?PR?_READFLASH?MAIN                              -----    -----      0030H    
>> 0002H      -----    -----
  +--> ?PR?MAIN

?PR?PARAM_DEFAULT?IO                             0026H.6  0000H.1    002EH    
>> 0002H      1C66H    0004H
  +--> ?PR?IO
  +--> ?PR?_READFLASH?MAIN
  +--> ?CO?IO
  +--> ?PR?_WRITEFLASH?MAIN

?PR?IO                                           -----    -----      -----    
>> -----      -----    -----
  +--> ?CO?IO
  +--> ?PR?RESETSTATE?IO

?PR?_WRITEFLASH?MAIN                             -----    -----      0030H    
>> 0004H      -----    -----
  +--> ?PR?MAIN

?PR?AUTOMAT_VLAN?DS18B20                         -----    -----      -----    
>> -----      -----    -----
  +--> ?PR?DS18B20

?PR?AUTOMAT_LAN?DS18B20                          -----    -----      -----    
>> -----      -----    -----
  +--> ?PR?DS18B20
  +--> ?PR?_CRC_8_LAN?DS18B20

?PR?INIT_IO?IO                                   -----    -----      -----    
>> -----      -----    -----
  +--> ?PR?INIT_SMS_PHONE?SIEM_SMS

?PR?INIT_SMS_PHONE?SIEM_SMS                      -----    -----      -----    
>> -----      1BC4H    0002H
  +--> ?PR?SIEM_SMS
  +--> ?PR?READSCRATCHPAD1?MAIN

?PR?SIEM_SMS                                     -----    -----      -----    
>> -----      -----    -----
  +--> ?PR?_HEXASCII_TO_HEX?SIEM_SMS

?PR?INITIALIZE_SENSOR?SENSOR                     -----    -----      -----    
>> -----      -----    -----
  +--> ?PR?READ_PORT_SENSOR_CUR?SENSOR
  +--> ?PR?_READ_PORT_SENSOR?SENSOR
  +--> ?PR?SENSOR

?PR?_READ_PORT_SENSOR?SENSOR                     -----    -----      -----    
>> -----      -----    -----
  +--> ?PR?SENSOR

?PR?INITIALIZE_RELE?RELE                         -----    -----      -----    
>> -----      -----    -----
  +--> ?PR?READSCRATCHPAD1?MAIN

BL51 BANKED LINKER/LOCATER V6.22            10/13/2015  11:10:35  PAGE 11


?PR?INITAF?ATFLASH                               -----    -----      -----    
>> -----      -----    -----
  +--> ?PR?READAF?ATFLASH
  +--> ?PR?ATFLASH
  +--> ?PR?HOLDSPI_AF?ATFLASH
  +--> ?PR?WAITREADYAF?ATFLASH

?PR?READAF?ATFLASH                               -----    -----      -----    
>> -----      -----    -----
  +--> ?PR?ATFLASH
  +--> ?PR?WAITREADYAF?ATFLASH
  +--> ?PR?WAITSPI?ATFLASH

?PR?WAITREADYAF?ATFLASH                          -----    -----      -----    
>> -----      -----    -----
  +--> ?PR?HOLDSPI_AF?ATFLASH

?PR?INIT_LAN?DS18B20                             -----    -----      -----    
>> -----      -----    -----
  +--> ?PR?DS18B20

?PR?DEBUG_GPRS_INIT?GPRS                         -----    -----      -----    
>> -----      -----    -----
  +--> ?PR?_INIT_MAX?UART

?PR?_INIT_MAX?UART                               -----    -----      -----    
>> -----      -----    -----
  +--> ?PR?HOLDSPI_MAX?UART
  +--> ?PR?FREESPI_MAX?UART

?PR?SEND_MAX?UART                                -----    -----      -----    
>> -----      -----    -----
  +--> ?PR?HOLDSPI_MAX?UART
  +--> ?PR?FREESPI_MAX?UART

?PR?FINISHCONVERTADC?ADC                         -----    -----      0028H    
>> 0001H      -----    -----
  +--> ?PR?ADC

?PR?AUTOMAT_SENSOR?SENSOR                        -----    -----      -----    
>> -----      -----    -----
  +--> ?PR?_AUTOMAT_SENSOR_N?SENSOR

?PR?_AUTOMAT_SENSOR_N?SENSOR                     -----    -----      0028H    
>> 0001H      -----    -----
  +--> ?PR?SENSOR
  +--> ?PR?_ISSENSCHANGE?SENSOR
  +--> ?PR?_SENSFRONTTEST?SENSOR
  +--> ?PR?_SENSACTION?SENSOR
  +--> ?PR?_RESET_SENSOR?SENSOR

?PR?_ISSENSCHANGE?SENSOR                         -----    -----      -----    
>> -----      -----    -----
  +--> ?PR?_READ_PORT_SENSOR?SENSOR
  +--> ?PR?SENSOR

?PR?_SENSFRONTTEST?SENSOR                        -----    -----      -----    
>> -----      -----    -----
  +--> ?PR?SENSOR

?PR?_SENSACTION?SENSOR                           -----    -----      0029H    
>> 0001H      -----    -----
  +--> ?PR?_ASKBIT?SENSOR
  +--> ?PR?SENSOR
  +--> ?PR?_SETBIT?SENSOR
BL51 BANKED LINKER/LOCATER V6.22            10/13/2015  11:10:35  PAGE 12


  +--> ?PR?_SENSFRONTTEST?SENSOR
  +--> ?PR?_SETSOB?SENSOR

?PR?_SETBIT?SENSOR                               0026H.5  0000H.1    002AH    
>> 0003H      -----    -----

?PR?_RESET_SENSOR?SENSOR                         -----    -----      -----    
>> -----      -----    -----
  +--> ?PR?SENSOR

?PR?AUTOMAT_RELE?RELE                            -----    -----      -----    
>> -----      1BC4H    0001H
  +--> ?PR?RELE
  +--> ?PR?SAVETOFLASH?RELE

?PR?SAVETOFLASH?RELE                             -----    -----      -----    
>> -----      -----    -----
  +--> ?PR?READSCRATCHPAD1?MAIN
  +--> ?PR?WRITESCRATCHPAD1?MAIN

?PR?AUTOMAT_GPRS_GLOB?GPRS                       -----    -----      0028H    
>> 0001H      -----    -----
  +--> ?PR?_SEND_C_OUT_MAX?GPRS
  +--> ?PR?GPRS
  +--> ?PR?_NPACKINC?IO
  +--> ?PR?_GET_NPACK_INC?IO
  +--> ?PR?AUTOMAT_GPRS_IN?GPRS
  +--> ?PR?AUTOMAT_GPRS_OUT?GPRS
  +--> ?PR?AUTOMAT_HTTP?HTTP
  +--> ?PR?CLEARBUF_UART0?UART

?PR?_SEND_C_OUT_MAX?GPRS                         -----    -----      0029H    
>> 0001H      -----    -----
  +--> ?PR?SEND_MAX?UART

?PR?AUTOMAT_GPRS_IN?GPRS                         -----    -----      -----    
>> -----      -----    -----
  +--> ?PR?READ_BYTE_UART0_GPRS?UART
  +--> ?CO?GPRS
  +--> ?PR?GPRS
  +--> ?PR?_ATOI?ATOI
  +--> ?PR?_GET_HTTP_TIME?SIEM_SMS
  +--> ?PR?_STRNCMP?STRNCMP
  +--> ?PR?CLEARBUF_UART0?UART

?PR?READ_BYTE_UART0_GPRS?UART                    -----    -----      -----    
>> -----      -----    -----
  +--> ?PR?UART

?PR?_ATOI?ATOI                                   0026H.5  0000H.1    002EH    
>> 0005H      -----    -----
  +--> ?PR?_ISSPACE?ISSPACE
  +--> ?PR?_ISDIGIT?ISDIGIT

?PR?_GET_HTTP_TIME?SIEM_SMS                      -----    -----      0029H    
>> 0002H      1BC4H    000BH
  +--> ?PR?_ATOI?ATOI
  +--> ?CO?SIEM_SMS
  +--> ?PR?_STRNCMP?STRNCMP
  +--> ?PR?GETN?SIEM_SMS
  +--> ?PR?SIEM_SMS

?PR?_STRNCMP?STRNCMP                             -----    -----      002FH    
>> 0008H      -----    -----

BL51 BANKED LINKER/LOCATER V6.22            10/13/2015  11:10:35  PAGE 13


?PR?GETN?SIEM_SMS                                -----    -----      -----    
>> -----      1BCFH    001CH
  +--> ?PR?SIEM_SMS

?PR?AUTOMAT_GPRS_OUT?GPRS                        -----    -----      -----    
>> -----      -----    -----
  +--> ?PR?_SENDSTRINGUART0?UART
  +--> ?PR?GPRS

?PR?_SENDSTRINGUART0?UART                        -----    -----      0029H    
>> 0007H      -----    -----
  +--> ?PR?_STRLEN?STRLEN
  +--> ?PR?SEND_CHAR_UART0?UART

?PR?SEND_CHAR_UART0?UART                         -----    -----      -----    
>> -----      -----    -----
  +--> ?PR?UART

?PR?AUTOMAT_HTTP?HTTP                            -----    -----      -----    
>> -----      -----    -----
  +--> ?PR?FORMINGHTTPHEADERS?HTTP
  +--> ?PR?HTTP
  +--> ?PR?_SEND_C_OUT_MAX?GPRS
  +--> ?PR?_FORMINGHTTPCONTENT?HTTP
  +--> ?PR?IOSTREAMCONF?HTTP

?PR?FORMINGHTTPHEADERS?HTTP                      0026H.5  0000H.1    0029H    
>> 0002H      1BC4H    0006H
  +--> ?PR?HTTP
  +--> ?PR?_FORMINGHTTPCONTENT?HTTP
  +--> ?PR?_HEX_TO_DECASCII_5?IO

?PR?HTTP                                         -----    -----      -----    
>> -----      -----    -----
  +--> ?CO?HTTP

?PR?_FORMINGHTTPCONTENT?HTTP                     -----    -----      002BH    
>> 0003H      1BCAH    001BH
  +--> ?CO?HTTP
  +--> ?PR?_STRNCAT?STRNCAT
  +--> ?PR?_CPYITERISDATA?KOD8
  +--> ?PR?_STRCAT?STRCAT
  +--> ?PR?_HEX_TO_DECASCII_5?IO
  +--> ?PR?_STRLEN?STRLEN

?PR?_STRNCAT?STRNCAT                             -----    -----      0031H    
>> 000AH      -----    -----

?PR?_CPYITERISDATA?KOD8                          -----    -----      002EH    
>> 0003H      1BE5H    0009H
  +--> ?PR?KOD8
  +--> ?PR?_STRCHR?STRCHR
  +--> ?CO?KOD8
  +--> ?PR?_STRCAT?STRCAT
  +--> ?PR?_STRNCAT?STRNCAT

?PR?_STRCAT?STRCAT                               -----    -----      0031H    
>> 0009H      -----    -----

?PR?_HEX_TO_DECASCII_5?IO                        -----    -----      002EH    
>> 0005H      1BE5H    0004H
  +--> ?PR?IO

?PR?AUTOMAT_K8?KOD8                              -----    -----      0028H    
>> 0001H      1BC4H    0001H
BL51 BANKED LINKER/LOCATER V6.22            10/13/2015  11:10:35  PAGE 14


  +--> ?PR?SEND_CHAR_UART0?UART
  +--> ?PR?CLEARBUF_UART0?UART
  +--> ?PR?CLEARBUF_UART1?UART
  +--> ?PR?MACHINEITERIS?KOD8
  +--> ?PR?READ_BYTE_UART0?UART
  +--> ?CO?KOD8
  +--> ?PR?KOD8
  +--> ?PR?SEND_CHAR_UART1?UART
  +--> ?PR?READ_BYTE_UART1?UART

?PR?MACHINEITERIS?KOD8                           -----    -----      0029H    
>> 0001H      1BC5H    0003H
  +--> ?PR?READ_BYTE_UART1?UART
  +--> ?PR?_RECEIVESTRITERIS?KOD8
  +--> ?PR?KOD8
  +--> ?PR?_ANALISESTREAM?KOD8
  +--> ?CO?KOD8
  +--> ?PR?_RECEIVERITERIS?KOD8
  +--> ?PR?_STRLEN?STRLEN
  +--> ?PR?_TRANSMITCOMMAND?KOD8

?PR?_RECEIVESTRITERIS?KOD8                       -----    -----      -----    
>> -----      -----    -----
  +--> ?PR?KOD8

?PR?_ANALISESTREAM?KOD8                          -----    -----      002AH    
>> 0005H      -----    -----
  +--> ?CO?KOD8
  +--> ?PR?_STRNCMP?STRNCMP
  +--> ?PR?KOD8
  +--> ?PR?_STRLEN?STRLEN

?PR?_RECEIVERITERIS?KOD8                         -----    -----      -----    
>> -----      -----    -----
  +--> ?PR?KOD8

?PR?_TRANSMITCOMMAND?KOD8                        -----    -----      002AH    
>> 0007H      -----    -----
  +--> ?PR?KOD8
  +--> ?PR?CLEARBUF_UART1?UART
  +--> ?CO?KOD8
  +--> ?PR?_SENDSTRINGUART1?UART

?PR?_SENDSTRINGUART1?UART                        -----    -----      0031H    
>> 0005H      -----    -----
  +--> ?PR?_STRLEN?STRLEN
  +--> ?PR?SEND_CHAR_UART1?UART

?PR?SEND_CHAR_UART1?UART                         -----    -----      -----    
>> -----      -----    -----
  +--> ?PR?UART

?PR?READ_BYTE_UART0?UART                         -----    -----      -----    
>> -----      -----    -----
  +--> ?PR?UART

?PR?AUTOMAT_LEDS?MAIN                            -----    -----      -----    
>> -----      -----    -----
  +--> ?PR?MAIN

?PR?WRITEAF?ATFLASH                              -----    -----      -----    
>> -----      -----    -----
  +--> ?PR?WAITREADYAF?ATFLASH
  +--> ?PR?ATFLASH
  +--> ?PR?HOLDSPI_AF?ATFLASH
BL51 BANKED LINKER/LOCATER V6.22            10/13/2015  11:10:35  PAGE 15


  +--> ?PR?WAITSPI?ATFLASH

?PR?AUTOMAT_SEARCH?MAIN                          -----    -----      0028H    
>> 0001H      -----    -----
  +--> ?PR?MAIN
  +--> ?PR?SETRDSEARCH?MAIN
  +--> ?PR?WRITEOUTPUTDATA?MAIN

?PR?SETRDSEARCH?MAIN                             -----    -----      -----    
>> -----      -----    -----
  +--> ?PR?MAIN
  +--> ?PR?READAF?ATFLASH

?PR?WRITEOUTPUTDATA?MAIN                         -----    -----      0029H    
>> 0002H      -----    -----
  +--> ?PR?MAIN

?PR?AUTOMAT_REQUEST?MAIN                         -----    -----      0028H    
>> 0001H      1BC4H    0002H
  +--> ?PR?MAIN
  +--> ?PR?TEST_IN_CS?MAIN
  +--> ?PR?GETFDMASK?MAIN
  +--> ?PR?WRITEOUTPUTDATA?MAIN
  +--> ?PR?INIT_LIMITS_DATA?MAIN
  +--> ?PR?_WRITEFLASH?MAIN
  +--> ?PR?_TEST_TEL_TO_PHONE?IO
  +--> ?PR?ANALISE_TEL_NUM?SIEM_SMS
  +--> ?PR?WRITESCRATCHPAD1?MAIN
  +--> ?PR?_DO_PACK030F?IO
  +--> ?PR?_DO_PACK53?IO
  +--> ?PR?_DO_TXTPACK_S?IO
  +--> ?PR?_DO_TXTPACK_T?IO
  +--> ?PR?_DO_TXTPACK_P?IO
  +--> ?PR?_DO_TXTPACK_N?IO
  +--> ?PR?_DO_TXTPACK_V?IO
  +--> ?PR?_UPRRELE?RELE
  +--> ?PR?_TEST_READ_TEXT?IO
  +--> ?PR?_READFLASH?MAIN
  +--> ?PR?_WRITE_TEL_TO_PHONE?SIEM_SMS

?PR?TEST_IN_CS?MAIN                              -----    -----      -----    
>> -----      1BC6H    0002H

?PR?GETFDMASK?MAIN                               -----    -----      0029H    
>> 0008H      1BC6H    0004H

?PR?_TEST_TEL_TO_PHONE?IO                        -----    -----      -----    
>> -----      1BC6H    0002H

?PR?ANALISE_TEL_NUM?SIEM_SMS                     -----    -----      -----    
>> -----      1BC6H    0003H
  +--> ?PR?SIEM_SMS

?PR?_DO_PACK030F?IO                              -----    -----      0029H    
>> 0003H      1BC6H    0001H
  +--> ?PR?IO
  +--> ?PR?_FULL_BUF_NUM_TEL?SIEM_SMS

?PR?_FULL_BUF_NUM_TEL?SIEM_SMS                   -----    -----      002CH    
>> 0003H      1BC7H    0002H
  +--> ?PR?SIEM_SMS

?PR?_DO_PACK53?IO                                -----    -----      0029H    
>> 0003H      1BC6H    0001H
  +--> ?PR?_FULL_BUF_NUM_TEL2?SIEM_SMS
BL51 BANKED LINKER/LOCATER V6.22            10/13/2015  11:10:35  PAGE 16


  +--> ?PR?IO

?PR?_FULL_BUF_NUM_TEL2?SIEM_SMS                  -----    -----      002CH    
>> 0003H      1BC7H    0002H
  +--> ?PR?SIEM_SMS

?PR?_DO_TXTPACK_S?IO                             -----    -----      0029H    
>> 0004H      1BC6H    0011H
  +--> ?PR?IO
  +--> ?PR?_HEX_TO_DECASCII_5?IO

?PR?_DO_TXTPACK_T?IO                             -----    -----      0029H    
>> 0005H      1BC6H    0005H
  +--> ?PR?IO

?PR?_DO_TXTPACK_P?IO                             -----    -----      0029H    
>> 0003H      1BC6H    0005H
  +--> ?PR?IO

?PR?_DO_TXTPACK_N?IO                             -----    -----      0029H    
>> 0004H      1BC6H    0005H
  +--> ?PR?IO
  +--> ?PR?_GETTEL_SO_TO_ASCII?SIEM_SMS

?PR?_GETTEL_SO_TO_ASCII?SIEM_SMS                 -----    -----      002DH    
>> 0007H      1BCEH    0002H
  +--> ?PR?SIEM_SMS
  +--> ?PR?_HEX_TO_HEXASCII_LO?SIEM_SMS
  +--> ?PR?_HEX_TO_HEXASCII_HI?SIEM_SMS

?PR?_HEX_TO_HEXASCII_LO?SIEM_SMS                 -----    -----      -----    
>> -----      1BD4H    0001H

?PR?_HEX_TO_HEXASCII_HI?SIEM_SMS                 -----    -----      -----    
>> -----      1BD4H    0001H

?PR?_DO_TXTPACK_V?IO                             -----    -----      0029H    
>> 0004H      1BC6H    000EH
  +--> ?PR?IO
  +--> ?PR?_HEX_TO_HEXASCII_HI?SIEM_SMS
  +--> ?PR?_HEX_TO_HEXASCII_LO?SIEM_SMS
  +--> ?PR?_HEX_TO_DECASCII_5?IO

?PR?_UPRRELE?RELE                                -----    -----      0029H    
>> 0003H      1BC6H    0004H
  +--> ?PR?RELE
  +--> ?PR?SAVETOFLASH?RELE

?PR?_TEST_READ_TEXT?IO                           -----    -----      002AH    
>> 0004H      1C5FH    0007H
  +--> ?PR?IO
  +--> ?PR?_TOUPPER?TOUPPER
  +--> ?CO?IO
  +--> ?PR?_READFLASH?MAIN
  +--> ?PR?PARAM_DEFAULT?IO
  +--> ?PR?_WRITEFLASH?MAIN
  +--> ?PR?_ATOI?ATOI
  +--> ?PR?READSCRATCHPAD1?MAIN
  +--> ?PR?WRITESCRATCHPAD1?MAIN
  +--> ?PR?_TSTPHONENUM?IO
  +--> ?PR?_STRNCMP?STRNCMP

?PR?_TSTPHONENUM?IO                              -----    -----      002EH    
>> 0001H      1C66H    0002H
  +--> ?PR?IO
BL51 BANKED LINKER/LOCATER V6.22            10/13/2015  11:10:35  PAGE 17


  +--> ?PR?_GETTEL_ASCII_TO_SO?SIEM_SMS

?PR?_GETTEL_ASCII_TO_SO?SIEM_SMS                 -----    -----      002FH    
>> 0007H      1C68H    0002H
  +--> ?PR?SIEM_SMS

?PR?_WRITE_TEL_TO_PHONE?SIEM_SMS                 -----    -----      0029H    
>> 0003H      1BC6H    0001H
  +--> ?PR?SIEM_SMS

?PR?AUTOMAT_ALARM?MAIN                           -----    -----      -----    
>> -----      -----    -----
  +--> ?PR?MAIN
  +--> ?PR?GETFDMASK?MAIN
  +--> ?PR?WRITEOUTPUTDATA?MAIN
  +--> ?PR?AUTOMAT__RA?MAIN
  +--> ?PR?WRITESCRATCHPAD1?MAIN

?PR?AUTOMAT__RA?MAIN                             -----    -----      -----    
>> -----      -----    -----
  +--> ?PR?MAIN
  +--> ?PR?SETRDSEARCHRA?MAIN
  +--> ?PR?GETFDMASK?MAIN
  +--> ?PR?WRITEOUTPUTDATA?MAIN

?PR?SETRDSEARCHRA?MAIN                           -----    -----      -----    
>> -----      -----    -----
  +--> ?PR?READAF?ATFLASH
  +--> ?PR?MAIN

?PR?AUTOMAT_IO?IO                                -----    -----      -----    
>> -----      -----    -----
  +--> ?PR?RESTART_PHONE?SIEM_SMS
  +--> ?PR?AUTOMAT_SMS_PHONE?SIEM_SMS
  +--> ?PR?AUTOMAT_SMS?IO

?PR?RESTART_PHONE?SIEM_SMS                       -----    -----      -----    
>> -----      -----    -----
  +--> ?PR?SIEM_SMS

?PR?AUTOMAT_SMS_PHONE?SIEM_SMS                   -----    -----      -----    
>> -----      1BC4H    000AH
  +--> ?PR?READ_BYTE_UART0?UART
  +--> ?PR?RECEIVE_SIM?SIEM_SMS
  +--> ?PR?SIEM_SMS
  +--> ?PR?ANALISELINE?SIEM_SMS
  +--> ?PR?AUTOMAT_INITSIM?SIEM_SMS
  +--> ?PR?AUTOMAT_PERSIMWORK?SIEM_SMS
  +--> ?PR?_COMMAND_DEL_SMS?SIEM_SMS
  +--> ?CO?SIEM_SMS
  +--> ?PR?_SEND_STR_SIM?SIEM_SMS
  +--> ?PR?CLEARBUF_UART0?UART
  +--> ?PR?SEND_CHAR_UART0?UART
  +--> ?PR?_HEX_TO_DECASCII_5?IO
  +--> ?PR?_HEX_TO_HEXASCII_HI?SIEM_SMS
  +--> ?PR?_HEX_TO_HEXASCII_LO?SIEM_SMS
  +--> ?PR?COMMAND_TEST_NETWORK?SIEM_SMS
  +--> ?PR?COMMAND_GET_READ_SMS?SIEM_SMS
  +--> ?PR?COMMAND_GET_QUALITY_SIGNAL?SIEM_SMS
  +--> ?PR?_SET_COM_SPEED?CONFIG
  +--> ?PR?COMMAND_ATA?SIEM_SMS
  +--> ?PR?BREAK_GSM_REQ?IO
  +--> ?PR?_SEND_C_OUT_MAX?GPRS
  +--> ?PR?COMMAND_3P?SIEM_SMS
  +--> ?PR?COMMAND_CHLD_1?SIEM_SMS
BL51 BANKED LINKER/LOCATER V6.22            10/13/2015  11:10:35  PAGE 18


  +--> ?PR?COMMAND_ATO?SIEM_SMS
  +--> ?PR?COMMAND_E2IPA?SIEM_SMS
  +--> ?PR?COMMAND_E2IPO?SIEM_SMS
  +--> ?PR?COMMAND_NETWORK_REGISTRATION?SIEM...
  +--> ?PR?RESTART_PHONE?SIEM_SMS
  +--> ?PR?_GETTEL_SO_TO_ASCII?SIEM_SMS

?PR?RECEIVE_SIM?SIEM_SMS                         -----    -----      -----    
>> -----      -----    -----
  +--> ?PR?SIEM_SMS

?PR?ANALISELINE?SIEM_SMS                         -----    -----      -----    
>> -----      1BCEH    0004H
  +--> ?CO?SIEM_SMS
  +--> ?PR?SIEM_SMS
  +--> ?PR?READSCRATCHPAD1?MAIN
  +--> ?PR?WRITESCRATCHPAD1?MAIN
  +--> ?PR?COMMAND_3P?SIEM_SMS
  +--> ?PR?COMMAND_ATH?SIEM_SMS
  +--> ?PR?_GETTEL_ASCII_TO_SO?SIEM_SMS
  +--> ?PR?_COMP_TELNUM?SIEM_SMS
  +--> ?PR?_GET_BYTE_FR_ASCII?SIEM_SMS
  +--> ?PR?_GET_NUM_SMS_FR_ASCII?SIEM_SMS
  +--> ?PR?_STRNCMP?STRNCMP
  +--> ?PR?_HEXASCII_TO_HEX?SIEM_SMS
  +--> ?PR?_SEND_C_OUT_MAX?GPRS
  +--> ?PR?_GETTEL_ATSO_TO_SO?SIEM_SMS

?PR?COMMAND_3P?SIEM_SMS                          -----    -----      0028H    
>> 0001H      -----    -----
  +--> ?PR?CLEARBUF_UART0?UART
  +--> ?CO?SIEM_SMS
  +--> ?PR?SEND_CHAR_UART0?UART

?PR?COMMAND_ATH?SIEM_SMS                         -----    -----      0028H    
>> 0001H      -----    -----
  +--> ?PR?CLEARBUF_UART0?UART
  +--> ?CO?SIEM_SMS
  +--> ?PR?SEND_CHAR_UART0?UART

?PR?_COMP_TELNUM?SIEM_SMS                        -----    -----      0028H    
>> 0005H      1BD2H    0001H
  +--> ?PR?SIEM_SMS

?PR?_GET_BYTE_FR_ASCII?SIEM_SMS                  -----    -----      -----    
>> -----      -----    -----
  +--> ?PR?SIEM_SMS

?PR?_GET_NUM_SMS_FR_ASCII?SIEM_SMS               -----    -----      -----    
>> -----      -----    -----
  +--> ?PR?SIEM_SMS

?PR?_GETTEL_ATSO_TO_SO?SIEM_SMS                  -----    -----      0028H    
>> 0007H      1BD2H    0002H
  +--> ?PR?SIEM_SMS

?PR?AUTOMAT_INITSIM?SIEM_SMS                     -----    -----      -----    
>> -----      1BCEH    0003H
  +--> ?PR?SIEM_SMS
  +--> ?PR?SEND_CHAR_UART0?UART
  +--> ?CO?SIEM_SMS
  +--> ?PR?CLEARBUF_UART0?UART
  +--> ?PR?COMMAND_ATS10?SIEM_SMS
  +--> ?PR?COMMAND_ATS7?SIEM_SMS
  +--> ?PR?COMMAND_CPBS_SM?SIEM_SMS
BL51 BANKED LINKER/LOCATER V6.22            10/13/2015  11:10:35  PAGE 19


  +--> ?PR?COMMAND_CPMS_SM?SIEM_SMS
  +--> ?PR?COMMAND_GET_QUALITY_SIGNAL?SIEM_SMS
  +--> ?PR?COMMAND_CNMI?SIEM_SMS
  +--> ?PR?_SEND_STR_SIM?SIEM_SMS
  +--> ?PR?COMMAND_CRC?SIEM_SMS
  +--> ?PR?COMMAND_CLIP?SIEM_SMS
  +--> ?PR?COMMAND_CBST?SIEM_SMS
  +--> ?PR?COMMAND_CGSMS?SIEM_SMS
  +--> ?PR?COMMAND_CGDCONT?SIEM_SMS
  +--> ?PR?COMMAND_ENAD1?SIEM_SMS
  +--> ?PR?COMMAND_CGCEREP?SIEM_SMS
  +--> ?PR?COMMAND_ATAD1?SIEM_SMS
  +--> ?PR?COMMAND_ATAS1?SIEM_SMS
  +--> ?PR?COMMAND_IDSIM?SIEM_SMS
  +--> ?PR?COMMAND_E2SMSRI?SIEM_SMS
  +--> ?PR?COMMAND_E2IPS?SIEM_SMS
  +--> ?PR?COMMAND_READ_TELSC_SIM?SIEM_SMS
  +--> ?PR?_COMMAND_READ_TELDC_SIM?SIEM_SMS

?PR?COMMAND_ATS10?SIEM_SMS                       -----    -----      0028H    
>> 0001H      -----    -----
  +--> ?PR?CLEARBUF_UART0?UART
  +--> ?CO?SIEM_SMS
  +--> ?PR?SEND_CHAR_UART0?UART

?PR?COMMAND_ATS7?SIEM_SMS                        -----    -----      0028H    
>> 0001H      -----    -----
  +--> ?PR?CLEARBUF_UART0?UART
  +--> ?CO?SIEM_SMS
  +--> ?PR?SEND_CHAR_UART0?UART

?PR?COMMAND_CPBS_SM?SIEM_SMS                     -----    -----      0028H    
>> 0001H      -----    -----
  +--> ?PR?CLEARBUF_UART0?UART
  +--> ?CO?SIEM_SMS
  +--> ?PR?SEND_CHAR_UART0?UART

?PR?COMMAND_CPMS_SM?SIEM_SMS                     -----    -----      0028H    
>> 0001H      -----    -----
  +--> ?PR?CLEARBUF_UART0?UART
  +--> ?CO?SIEM_SMS
  +--> ?PR?SEND_CHAR_UART0?UART

?PR?COMMAND_GET_QUALITY_SIGNAL?SIEM_SMS          -----    -----      002AH    
>> 0001H      -----    -----
  +--> ?PR?CLEARBUF_UART0?UART
  +--> ?CO?SIEM_SMS
  +--> ?PR?SEND_CHAR_UART0?UART

?PR?COMMAND_CNMI?SIEM_SMS                        -----    -----      0028H    
>> 0001H      -----    -----
  +--> ?PR?CLEARBUF_UART0?UART
  +--> ?CO?SIEM_SMS
  +--> ?PR?SEND_CHAR_UART0?UART

?PR?_SEND_STR_SIM?SIEM_SMS                       -----    -----      0028H    
>> 0003H      -----    -----
  +--> ?PR?SEND_CHAR_UART0?UART

?PR?COMMAND_CRC?SIEM_SMS                         -----    -----      0028H    
>> 0001H      -----    -----
  +--> ?PR?CLEARBUF_UART0?UART
  +--> ?CO?SIEM_SMS
  +--> ?PR?SEND_CHAR_UART0?UART

BL51 BANKED LINKER/LOCATER V6.22            10/13/2015  11:10:35  PAGE 20


?PR?COMMAND_CLIP?SIEM_SMS                        -----    -----      0028H    
>> 0001H      -----    -----
  +--> ?PR?CLEARBUF_UART0?UART
  +--> ?CO?SIEM_SMS
  +--> ?PR?SEND_CHAR_UART0?UART

?PR?COMMAND_CBST?SIEM_SMS                        -----    -----      0028H    
>> 0001H      -----    -----
  +--> ?PR?CLEARBUF_UART0?UART
  +--> ?CO?SIEM_SMS
  +--> ?PR?SEND_CHAR_UART0?UART

?PR?COMMAND_CGSMS?SIEM_SMS                       -----    -----      0028H    
>> 0001H      -----    -----
  +--> ?PR?CLEARBUF_UART0?UART
  +--> ?CO?SIEM_SMS
  +--> ?PR?SEND_CHAR_UART0?UART

?PR?COMMAND_CGDCONT?SIEM_SMS                     -----    -----      0028H    
>> 0003H      -----    -----
  +--> ?PR?CLEARBUF_UART0?UART
  +--> ?CO?SIEM_SMS
  +--> ?PR?SEND_CHAR_UART0?UART
  +--> ?PR?SIEM_SMS

?PR?COMMAND_ENAD1?SIEM_SMS                       -----    -----      0028H    
>> 0005H      -----    -----
  +--> ?PR?CLEARBUF_UART0?UART
  +--> ?CO?SIEM_SMS
  +--> ?PR?SEND_CHAR_UART0?UART
  +--> ?PR?SIEM_SMS

?PR?COMMAND_CGCEREP?SIEM_SMS                     -----    -----      0028H    
>> 0001H      -----    -----
  +--> ?PR?CLEARBUF_UART0?UART
  +--> ?CO?SIEM_SMS
  +--> ?PR?SEND_CHAR_UART0?UART

?PR?COMMAND_ATAD1?SIEM_SMS                       -----    -----      0028H    
>> 0001H      -----    -----
  +--> ?PR?CLEARBUF_UART0?UART
  +--> ?CO?SIEM_SMS
  +--> ?PR?SEND_CHAR_UART0?UART

?PR?COMMAND_ATAS1?SIEM_SMS                       -----    -----      0028H    
>> 0001H      -----    -----
  +--> ?PR?CLEARBUF_UART0?UART
  +--> ?CO?SIEM_SMS
  +--> ?PR?SEND_CHAR_UART0?UART

?PR?COMMAND_IDSIM?SIEM_SMS                       -----    -----      0028H    
>> 0001H      -----    -----
  +--> ?PR?CLEARBUF_UART0?UART
  +--> ?CO?SIEM_SMS
  +--> ?PR?SEND_CHAR_UART0?UART

?PR?COMMAND_E2SMSRI?SIEM_SMS                     -----    -----      0028H    
>> 0001H      -----    -----
  +--> ?PR?CLEARBUF_UART0?UART
  +--> ?CO?SIEM_SMS
  +--> ?PR?SEND_CHAR_UART0?UART

?PR?COMMAND_E2IPS?SIEM_SMS                       -----    -----      0028H    
>> 0001H      -----    -----
  +--> ?PR?CLEARBUF_UART0?UART
BL51 BANKED LINKER/LOCATER V6.22            10/13/2015  11:10:35  PAGE 21


  +--> ?CO?SIEM_SMS
  +--> ?PR?SEND_CHAR_UART0?UART

?PR?COMMAND_READ_TELSC_SIM?SIEM_SMS              -----    -----      0028H    
>> 0001H      -----    -----
  +--> ?PR?CLEARBUF_UART0?UART
  +--> ?CO?SIEM_SMS
  +--> ?PR?SEND_CHAR_UART0?UART

?PR?_COMMAND_READ_TELDC_SIM?SIEM_SMS             -----    -----      0028H    
>> 0003H      1BD1H    0008H
  +--> ?PR?CLEARBUF_UART0?UART
  +--> ?CO?SIEM_SMS
  +--> ?PR?SEND_CHAR_UART0?UART
  +--> ?PR?_HEX_TO_DECASCII_5?IO
  +--> ?PR?SIEM_SMS

?PR?AUTOMAT_PERSIMWORK?SIEM_SMS                  -----    -----      0028H    
>> 0002H      -----    -----
  +--> ?PR?SIEM_SMS
  +--> ?PR?COMMAND_NETWORK_REGISTRATION?SIEM...
  +--> ?PR?COMMAND_TEST_NETWORK?SIEM_SMS
  +--> ?PR?COMMAND_GET_QUALITY_SIGNAL?SIEM_SMS
  +--> ?PR?CLEARBUF_UART0?UART

?PR?COMMAND_NETWORK_REGISTRATION?SIEM...         -----    -----      002AH    
>> 0001H      -----    -----
  +--> ?PR?CLEARBUF_UART0?UART
  +--> ?CO?SIEM_SMS
  +--> ?PR?SEND_CHAR_UART0?UART

?PR?COMMAND_TEST_NETWORK?SIEM_SMS                -----    -----      002AH    
>> 0001H      -----    -----
  +--> ?PR?CLEARBUF_UART0?UART
  +--> ?CO?SIEM_SMS
  +--> ?PR?SEND_CHAR_UART0?UART

?PR?_COMMAND_DEL_SMS?SIEM_SMS                    -----    -----      0028H    
>> 0002H      -----    -----
  +--> ?PR?CLEARBUF_UART0?UART
  +--> ?CO?SIEM_SMS
  +--> ?PR?SEND_CHAR_UART0?UART
  +--> ?PR?_HEX_TO_HEXASCII_HI?SIEM_SMS
  +--> ?PR?_HEX_TO_HEXASCII_LO?SIEM_SMS
  +--> ?PR?SIEM_SMS

?PR?COMMAND_GET_READ_SMS?SIEM_SMS                -----    -----      0028H    
>> 0001H      -----    -----
  +--> ?PR?CLEARBUF_UART0?UART
  +--> ?CO?SIEM_SMS
  +--> ?PR?SEND_CHAR_UART0?UART

?PR?_SET_COM_SPEED?CONFIG                        -----    -----      -----    
>> -----      -----    -----
  +--> ?CO?CONFIG

?PR?COMMAND_ATA?SIEM_SMS                         -----    -----      0028H    
>> 0001H      -----    -----
  +--> ?PR?CLEARBUF_UART0?UART
  +--> ?CO?SIEM_SMS
  +--> ?PR?SEND_CHAR_UART0?UART

?PR?COMMAND_CHLD_1?SIEM_SMS                      -----    -----      0028H    
>> 0001H      -----    -----
  +--> ?PR?CLEARBUF_UART0?UART
BL51 BANKED LINKER/LOCATER V6.22            10/13/2015  11:10:35  PAGE 22


  +--> ?CO?SIEM_SMS
  +--> ?PR?SEND_CHAR_UART0?UART

?PR?COMMAND_ATO?SIEM_SMS                         -----    -----      0028H    
>> 0001H      -----    -----
  +--> ?PR?CLEARBUF_UART0?UART
  +--> ?CO?SIEM_SMS
  +--> ?PR?SEND_CHAR_UART0?UART

?PR?COMMAND_E2IPA?SIEM_SMS                       -----    -----      0028H    
>> 0001H      -----    -----
  +--> ?PR?CLEARBUF_UART0?UART
  +--> ?CO?SIEM_SMS
  +--> ?PR?SEND_CHAR_UART0?UART

?PR?COMMAND_E2IPO?SIEM_SMS                       -----    -----      0028H    
>> 0006H      1BCEH    0008H
  +--> ?PR?CLEARBUF_UART0?UART
  +--> ?CO?SIEM_SMS
  +--> ?PR?SEND_CHAR_UART0?UART
  +--> ?PR?SIEM_SMS
  +--> ?PR?_HEX_TO_DECASCII_5?IO

?PR?AUTOMAT_SMS?IO                               -----    -----      -----    
>> -----      1BC4H    0003H
  +--> ?PR?TEST_READ_MES?IO
  +--> ?PR?IO
  +--> ?PR?_SEND_C_OUT_MAX?GPRS
  +--> ?PR?GETSTATE?IO
  +--> ?PR?_NPACKINC?IO
  +--> ?PR?GET_QUALITY_SIGNAL?SIEM_SMS
  +--> ?PR?FILL_BUF_OLD?IO
  +--> ?PR?RESETSTATE?IO
  +--> ?PR?FILL_BUF_AUTO?IO
  +--> ?PR?_SEND_MODEM?SIEM_SMS
  +--> ?PR?_SEND_SMS?SIEM_SMS
  +--> ?PR?IS_SMS_SEND_OUT?SIEM_SMS

?PR?TEST_READ_MES?IO                             -----    -----      -----    
>> -----      1BC7H    0001H
  +--> ?PR?ISNONDELETE_SMS?SIEM_SMS
  +--> ?PR?RESTARTTOLOADER?SIEM_SMS
  +--> ?PR?IS_NEW_SMS?SIEM_SMS
  +--> ?PR?READ_NEW_SMS?SIEM_SMS
  +--> ?PR?TEST_READ_DATA?IO
  +--> ?PR?IS_NEW_SMS_8BIT?SIEM_SMS

?PR?RESTARTTOLOADER?SIEM_SMS                     -----    -----      002BH    
>> 0002H      -----    -----
  +--> ?PR?SIEM_SMS
  +--> ?PR?SETOSCSLOWMODE?CONFIG
  +--> ?PR?CALL_PROGRAM_RESET?MAIN

?PR?SETOSCSLOWMODE?CONFIG                        -----    -----      -----    
>> -----      -----    -----
  +--> ?PR?_SET_COM_SPEED?CONFIG

?PR?READ_NEW_SMS?SIEM_SMS                        -----    -----      -----    
>> -----      -----    -----
  +--> ?PR?DELETE_SMS?SIEM_SMS

?PR?TEST_READ_DATA?IO                            -----    -----      0028H    
>> 0002H      1BC8H    0097H
  +--> ?PR?IS_NEW_SMS_8BIT?SIEM_SMS
  +--> ?PR?IO
BL51 BANKED LINKER/LOCATER V6.22            10/13/2015  11:10:35  PAGE 23


  +--> ?PR?_DATA_DECODE?IO
  +--> ?PR?_TEST_READ_TEXT?IO
  +--> ?PR?_READFLASH?MAIN
  +--> ?PR?_WRITEFLASH?MAIN

?PR?_DATA_DECODE?IO                              -----    -----      002AH    
>> 0006H      1C5FH    000BH
  +--> ?PR?_STRLEN?STRLEN
  +--> ?PR?IO

?PR?GETSTATE?IO                                  -----    -----      -----    
>> -----      1BC7H    0001H

?PR?FILL_BUF_OLD?IO                              -----    -----      -----    
>> -----      -----    -----
  +--> ?PR?IO

?PR?FILL_BUF_AUTO?IO                             -----    -----      -----    
>> -----      1BC7H    0001H
  +--> ?PR?_GET_NPACK_INC?IO
  +--> ?PR?IO

?PR?_SEND_MODEM?SIEM_SMS                         -----    -----      0028H    
>> 0003H      -----    -----
  +--> ?PR?SIEM_SMS

?PR?_SEND_SMS?SIEM_SMS                           -----    -----      0028H    
>> 0005H      -----    -----
  +--> ?PR?_DO_PACK_TEL_8B_SMS?SIEM_SMS

?PR?_DO_PACK_TEL_8B_SMS?SIEM_SMS                 -----    -----      002DH    
>> 0005H      1BC7H    0004H
  +--> ?PR?SIEM_SMS

?PR?AUTOMAT_RMODEM?RMODEM                        -----    -----      0028H    
>> 0003H      -----    -----
  +--> ?PR?RECEIVE_CHAR_MAX?UART
  +--> ?PR?RMODEM
  +--> ?PR?SEND_MAX?UART
  +--> ?PR?RESTARTTOLOADER?SIEM_SMS
  +--> ?PR?FREE_INPUT_STREAM?RMODEM
  +--> ?PR?CHECK_GAP_RMODEM?RMODEM
  +--> ?PR?FREE_OUTPUT_STREAM?RMODEM
  +--> ?PR?CLEARBUF_MAX?UART
  +--> ?PR?FAIL_RESET_RMODEM?RMODEM
  +--> ?PR?MAX_TRANSMIT?UART
  +--> ?PR?MAX_RECEIVE?UART
  +--> ?PR?_INIT_MAX?UART
  +--> ?PR?_GET_SN_SMS?RMODEM

?PR?RECEIVE_CHAR_MAX?UART                        0026H.5  0000H.1    -----    
>> -----      -----    -----

?PR?FREE_INPUT_STREAM?RMODEM                     -----    -----      -----    
>> -----      -----    -----
  +--> ?PR?RMODEM

?PR?FREE_OUTPUT_STREAM?RMODEM                    -----    -----      -----    
>> -----      -----    -----
  +--> ?PR?RMODEM

?PR?FAIL_RESET_RMODEM?RMODEM                     -----    -----      -----    
>> -----      -----    -----
  +--> ?PR?RMODEM
  +--> ?PR?_INIT_MAX?UART
BL51 BANKED LINKER/LOCATER V6.22            10/13/2015  11:10:35  PAGE 24


  +--> ?PR?MAX_RECEIVE?UART
  +--> ?PR?CLEARBUF_MAX?UART

?PR?MAX_RECEIVE?UART                             -----    -----      -----    
>> -----      -----    -----
  +--> ?PR?UART

?PR?MAX_TRANSMIT?UART                            -----    -----      -----    
>> -----      -----    -----
  +--> ?PR?UART



INTERBANK CALL TABLE OF MODULE:  E:\_KEIL_SOURCE\_GSM_MODEM_ITERIS\k8tse (MAIN
>> )

ADDRESS    FUNCTION NAME
------------------------
 6044H     READAF
 6049H     _TEST_TEL_TO_PHONE
 604EH     ANALISE_TEL_NUM
 6053H     _DO_PACK030F
 6058H     _DO_PACK53
 605DH     _DO_TXTPACK_S
 6062H     _DO_TXTPACK_T
 6067H     _DO_TXTPACK_P
 606CH     _DO_TXTPACK_N
 6071H     _DO_TXTPACK_V
 6076H     _UPRRELE
 607BH     _TEST_READ_TEXT
 6080H     _WRITE_TEL_TO_PHONE
 6085H     PARAM_DEFAULT
 608AH     AUTOMAT_VLAN
 608FH     AUTOMAT_LAN
 6094H     _CRC_8_LAN
 6099H     CONFIG
 609EH     INIT_UART0
 60A3H     INIT_UART1
 60A8H     INIT_K8
 60ADH     INIT_IO
 60B2H     INITIALIZE_SENSOR
 60B7H     INITIALIZE_RELE
 60BCH     INITAF
 60C1H     INIT_LAN
 60C6H     DEBUG_GPRS_INIT
 60CBH     GET_QUALITY_SIGNAL
 60D0H     SEND_MAX
 60D5H     STARTCONVERTADC
 60DAH     FINISHCONVERTADC
 60DFH     AUTOMAT_SENSOR
 60E4H     AUTOMAT_RELE
 60E9H     AUTOMAT_GPRS_GLOB
 60EEH     AUTOMAT_K8
 60F3H     GET_SOST_RELE
 60F8H     WRITEAF
 60FDH     AUTOMAT_IO
 6102H     AUTOMAT_RMODEM
 6107H     _SEND_C_OUT_MAX
 610CH     SEND_CHAR_UART0
 6111H     CLEARBUF_UART0
 6116H     READ_BYTE_UART0
 611BH     _SET_COM_SPEED
 6120H     SETOSCSLOWMODE
 6125H     RESTARTTOLOADER
 612AH     _INIT_MAX
BL51 BANKED LINKER/LOCATER V6.22            10/13/2015  11:10:35  PAGE 25


 612FH     _NPACKINC
 6134H     _GET_NPACK_INC
 6139H     READ_BYTE_UART0_GPRS
 613EH     _GET_HTTP_TIME
 6143H     _SENDSTRINGUART0
 6148H     _HEX_TO_DECASCII_5
 614DH     _CPYITERISDATA



SYMBOL TABLE OF MODULE:  E:\_KEIL_SOURCE\_GSM_MODEM_ITERIS\k8tse (MAIN)

  VALUE           TYPE          NAME
  ----------------------------------

  -------         MODULE        MAIN
  C:0000H         SYMBOL        _ICE_DUMMY_
  C:6B03H         PUBLIC        _WriteFlash
  X:0000H         PUBLIC        Char
  D:0080H         PUBLIC        P0
  D:0090H         PUBLIC        P1
  D:00FFH         PUBLIC        WDTCN
  D:00A0H         PUBLIC        P2
  C:6DD7H         PUBLIC        call_program_reset
  X:0001H         PUBLIC        time_wait_io
  D:00B0H         PUBLIC        P3
  D:00C8H         PUBLIC        P4
  D:00D8H         PUBLIC        P5
  X:0002H         PUBLIC        RAA1
  X:0004H         PUBLIC        FD_Auto
  X:0044H         PUBLIC        StateSendSMS
  B:00A8H.7       PUBLIC        EA
  D:00E8H         PUBLIC        P6
  X:0045H         PUBLIC        RAA2
  X:0047H         PUBLIC        saveAmountSearchPoints
  D:00F8H         PUBLIC        P7
  X:0049H         PUBLIC        RAA3
  X:004BH         PUBLIC        MaskEvents
  D:008FH         PUBLIC        PSCTL
  D:003BH         PUBLIC        pOutBuffer
  X:0053H         PUBLIC        mAuto
  X:005BH         PUBLIC        FD
  X:005CH         PUBLIC        FlashDump
  C:5EF6H         PUBLIC        automat_leds
  D:0084H         PUBLIC        SFRPAGE
  X:045CH         PUBLIC        IOStreamState
  X:0461H         PUBLIC        time_wait_phone_receive
  X:0462H         PUBLIC        saveStateSearch
  D:00A1H         PUBLIC        CCH0CN
  B:0021H.0       PUBLIC        Timer_tick
  X:0463H         PUBLIC        saveSMS_Tail
  X:0465H         PUBLIC        FD_Req
  C:6D10H         PUBLIC        ReadScratchPad1
  B:00B0H.1       PUBLIC        P3_1
  B:00D8H.0       PUBLIC        P5_0
  B:00B0H.2       PUBLIC        P3_2
  B:00B0H.3       PUBLIC        P3_3
  B:00A0H.5       PUBLIC        P2_5
  B:00B0H.5       PUBLIC        P3_5
  B:00A0H.6       PUBLIC        P2_6
  B:0090H.7       PUBLIC        P1_7
  X:04A5H         PUBLIC        saveCountSearchPoints
  B:0021H.1       PUBLIC        Alarm_Enable
  X:04A7H         PUBLIC        time_wait_SMSPhone
  D:003DH         PUBLIC        pInt
BL51 BANKED LINKER/LOCATER V6.22            10/13/2015  11:10:35  PAGE 26


  X:04A8H         PUBLIC        IOBufPointer
  X:04A9H         PUBLIC        StLED
  B:0021H.2       PUBLIC        DefaultProfile
  C:67DEH         PUBLIC        WriteOutputData
  B:0021H.3       PUBLIC        OutBufChange
  C:6A65H         PUBLIC        WriteScratchPad1
  X:04AAH         PUBLIC        reset_code
  X:04ABH         PUBLIC        Day_timer
  X:04ADH         PUBLIC        TimeRA
  B:0021H.4       PUBLIC        SearchEnable
  C:2800H         PUBLIC        main
  X:04AEH         PUBLIC        mLogCS
  X:04AFH         PUBLIC        CountAuto
  X:04B1H         PUBLIC        IOStreamBuf
  C:6DE1H         PUBLIC        init_limits_data
  X:0756H         PUBLIC        Float1
  X:075AH         PUBLIC        Int
  B:0021H.5       PUBLIC        ForbiddenAll
  X:075CH         PUBLIC        time_nogprs
  X:075DH         PUBLIC        AlarmPointNum
  X:075EH         PUBLIC        StSYSTEM
  C:6C2CH         PUBLIC        Test_In_CS
  X:0760H         PUBLIC        time_wait_io2
  X:0761H         PUBLIC        saveRdHeader
  X:0765H         PUBLIC        time_wait_io3
  X:0766H         PUBLIC        RA_cnt
  C:6282H         PUBLIC        GetFDMask
  C:6D43H         PUBLIC        LED_Mode
  C:50CDH         PUBLIC        OpenDeviceProfile
  C:6C69H         PUBLIC        SetRdSearch
  X:0767H         PUBLIC        count_restart_gsm
  X:0768H         PUBLIC        count_restart_cpu
  D:00B1H         PUBLIC        PSBANK
  B:0021H.6       PUBLIC        RestoreSearch
  X:0769H         PUBLIC        Rele_LCount
  X:076DH         PUBLIC        DataRAMPointer
  X:076FH         PUBLIC        RA_tmp
  B:0021H.7       PUBLIC        Auto_Enable
  X:0770H         PUBLIC        cnt
  B:0022H.0       PUBLIC        Lock_DataRAM
  X:0771H         PUBLIC        time_wait
  X:0772H         PUBLIC        GSM_signal
  B:00A8H.5       PUBLIC        ET2
  X:0773H         PUBLIC        time_wait_SMSPhone1
  D:003FH         PUBLIC        pTimeL
  X:0775H         PUBLIC        time_wait_SMSPhone2
  C:6DCDH         PUBLIC        reset_state_log
  X:0776H         PUBLIC        StLED1
  X:0777H         PUBLIC        NTicks
  X:0778H         PUBLIC        saveSearch2Time
  X:077CH         PUBLIC        saveIOBufPointer
  X:077EH         PUBLIC        Beacon_timer
  B:0022H.1       PUBLIC        CMask
  X:0780H         PUBLIC        mLogger
  C:5D57H         PUBLIC        automat__RA
  C:6BEBH         PUBLIC        SetRdSearchRA
  X:0788H         PUBLIC        AmountSearchPoints
  X:078AH         PUBLIC        State__RA
  B:0022H.2       PUBLIC        FlagTX0
  C:5BAAH         PUBLIC        automat_search
  X:078BH         PUBLIC        FD_Alarm
  B:0022H.3       PUBLIC        FlagTX1
  X:07CBH         PUBLIC        StLEDSTAT
  X:07CCH         PUBLIC        PreviousEvents
  X:07D4H         PUBLIC        mAlarm
BL51 BANKED LINKER/LOCATER V6.22            10/13/2015  11:10:35  PAGE 27


  X:07DCH         PUBLIC        DataRAM
  X:08E0H         PUBLIC        StateSearch
  X:08E1H         PUBLIC        port_ADC_latch
  X:08E2H         PUBLIC        SMS_Tail
  X:08E4H         PUBLIC        DataLogger
  X:0964H         PUBLIC        CurrentEvents
  X:096CH         PUBLIC        time_wait_txtsms
  B:0022H.4       PUBLIC        GetBack_m
  X:096DH         PUBLIC        AlarmTickCounter
  D:00EFH         PUBLIC        RSTSRC
  X:096EH         PUBLIC        Timer_inside
  X:0972H         PUBLIC        time_wait_lan
  X:0973H         PUBLIC        CountSearchPoints
  D:0041H         PUBLIC        pFD_Mask
  X:0975H         PUBLIC        AlarmEvents
  D:0043H         PUBLIC        pEvents
  X:097DH         PUBLIC        GSM_signal_prev
  X:097EH         PUBLIC        AmountAlarmPoints
  X:097FH         PUBLIC        time_wait_test
  C:4363H         PUBLIC        automat_request
  C:6D53H         PUBLIC        LED1_Mode
  C:6CDDH         PUBLIC        _ReadFlash
  C:5481H         PUBLIC        automat_alarm
  X:0980H         PUBLIC        CMask_buf
  X:0989H         PUBLIC        mResult
  D:0045H         PUBLIC        pChar
  X:0991H         PUBLIC        StateRequest
  X:0992H         PUBLIC        TickCounter
  X:0993H         PUBLIC        LimitsData
  X:09C5H         PUBLIC        RNext
  X:09C7H         PUBLIC        AddAlarmEvents
  X:09CFH         PUBLIC        StateAlarm
  D:00B7H         PUBLIC        FLSCL
  B:0022H.5       PUBLIC        Beacon_Enable
  X:09D0H         PUBLIC        CMask_cnt
  X:09D1H         PUBLIC        Float
  X:09D5H         PUBLIC        saveIOStreamStateOut
  D:0047H         PUBLIC        pFD
  B:0022H.6       PUBLIC        RA_Mode
  C:6D65H         PUBLIC        LEDSTAT_Mode
  X:09D7H         PUBLIC        Search1_Time
  X:09DBH         PUBLIC        mStore
  X:09E3H         PUBLIC        Search2_Time
  C:4B72H         SYMBOL        Com02A1
  C:4B72H         SYMBOL        L?0674
  C:4B7AH         SYMBOL        L?0675
  C:4B7CH         SYMBOL        L?0676
  C:4B7EH         SYMBOL        L?0677
  C:4B88H         SYMBOL        L?0678
  C:4B90H         SYMBOL        L?0679
  C:4BA4H         SYMBOL        L?0680
  C:4BA7H         SYMBOL        L?0681
  C:4BB3H         SYMBOL        L?0682
  C:4BB3H         SYMBOL        L?0683
  C:4BB6H         SYMBOL        L?0684
  C:4BC1H         SYMBOL        L?0685
  C:4BC1H         SYMBOL        L?0686
  C:4BE1H         SYMBOL        L?0687
  C:4BE1H         SYMBOL        L?0688
  C:4BEBH         SYMBOL        L?0689
  C:4BF5H         SYMBOL        L?0690
  C:4C08H         SYMBOL        L?0691
  C:4C0AH         SYMBOL        L?0692
  C:4C0BH         SYMBOL        L?0693
  C:4C0CH         SYMBOL        L?0694
BL51 BANKED LINKER/LOCATER V6.22            10/13/2015  11:10:35  PAGE 28


  C:4C13H         SYMBOL        L?0695
  C:4C13H         SYMBOL        L?0696
  C:4C1DH         SYMBOL        L?0697
  C:4C26H         SYMBOL        L?0698
  C:4C2FH         SYMBOL        L?0699
  C:4C31H         SYMBOL        L?0700
  C:4C3DH         SYMBOL        L?0701
  C:4C43H         SYMBOL        L?0702
  C:4C44H         SYMBOL        L?0703
  C:4C49H         SYMBOL        L?0704
  C:4C53H         SYMBOL        L?0705
  C:4C5AH         SYMBOL        L?0706
  C:4C62H         SYMBOL        L?0707
  C:4C6EH         SYMBOL        L?0708
  C:4C8DH         SYMBOL        L?0709
  C:4C91H         SYMBOL        L?0710
  C:4C9FH         SYMBOL        L?0711
  C:4CAFH         SYMBOL        L?0712
  C:4CEBH         SYMBOL        L?0713
  C:4CF0H         SYMBOL        L?0714
  C:4CF3H         SYMBOL        L?0715
  C:4CFFH         SYMBOL        L?0716
  C:4D0BH         SYMBOL        L?0717
  C:4D16H         SYMBOL        L?0718
  C:4D16H         SYMBOL        L?0719
  C:4D1DH         SYMBOL        L?0720
  C:4D1DH         SYMBOL        L?0721
  C:4D2DH         SYMBOL        L?0722
  C:4D3DH         SYMBOL        L?0723
  C:4D40H         SYMBOL        L?0724
  C:4D41H         SYMBOL        L?0725
  C:4D48H         SYMBOL        L?0726
  C:4D53H         SYMBOL        L?0727
  C:4D61H         SYMBOL        L?0728
  C:4D70H         SYMBOL        L?0729
  C:4D72H         SYMBOL        L?0730
  C:4D7DH         SYMBOL        L?0732
  C:4D7DH         SYMBOL        L?0733
  C:4D82H         SYMBOL        L?0734
  C:4D85H         SYMBOL        L?0735
  C:4D8CH         SYMBOL        L?0736
  C:4D8CH         SYMBOL        L?0737
  C:4D91H         SYMBOL        L?0738
  C:4D98H         SYMBOL        L?0739
  C:4D9BH         SYMBOL        L?0740
  C:4DA8H         SYMBOL        L?0741
  C:4DA8H         SYMBOL        L?0742
  C:4DB9H         SYMBOL        L?0743
  C:4DB9H         SYMBOL        L?0744
  C:4DBAH         SYMBOL        L?0745
  C:4DC1H         SYMBOL        L?0746
  C:4DC1H         SYMBOL        L?0747
  C:4DD2H         SYMBOL        L?0748
  C:4DD5H         SYMBOL        L?0749
  C:4DE2H         SYMBOL        L?0750
  C:4DE2H         SYMBOL        L?0751
  C:4DE5H         SYMBOL        L?0752
  C:4DEFH         SYMBOL        L?0754
  C:4DEFH         SYMBOL        L?0755
  C:4DF6H         SYMBOL        L?0756
  C:4DF6H         SYMBOL        L?0757
  C:4E01H         SYMBOL        L?0758
  C:4E01H         SYMBOL        L?0759
  C:4E0AH         SYMBOL        L?0761
  C:4E20H         SYMBOL        L?0762
BL51 BANKED LINKER/LOCATER V6.22            10/13/2015  11:10:35  PAGE 29


  C:4E35H         SYMBOL        L?0763
  C:4E3FH         SYMBOL        L?0764
  C:4E47H         SYMBOL        L?0765
  C:4E5CH         SYMBOL        L?0766
  C:4E71H         SYMBOL        L?0767
  C:4E86H         SYMBOL        L?0768
  C:4E86H         SYMBOL        L?0769
  C:4E8EH         SYMBOL        L?0770
  C:4E8EH         SYMBOL        L?0771
  C:4E90H         SYMBOL        L?0772
  C:4E97H         SYMBOL        L?0773
  C:4E97H         SYMBOL        L?0774
  C:4E9EH         SYMBOL        L?0775
  C:4EADH         SYMBOL        L?0776
  C:4EC0H         SYMBOL        L?0777
  C:4ED3H         SYMBOL        L?0780
  C:4ED3H         SYMBOL        L?0781
  C:4EDEH         SYMBOL        L?0782
  C:4EEFH         SYMBOL        L?0783
  C:4F00H         SYMBOL        L?0784
  C:4F11H         SYMBOL        L?0785
  C:4F13H         SYMBOL        L?0786
  C:4F1BH         SYMBOL        L?0787
  C:4F2BH         SYMBOL        L?0788
  C:4F3BH         SYMBOL        L?0789
  C:4F3BH         SYMBOL        L?0790
  C:4F45H         SYMBOL        L?0791
  C:4F55H         SYMBOL        L?0792
  C:4F59H         SYMBOL        L?0793
  C:4F61H         SYMBOL        L?0794
  C:4F61H         SYMBOL        L?0795
  C:4F69H         SYMBOL        L?0796
  C:4F79H         SYMBOL        L?0797
  C:4F88H         SYMBOL        L?0798
  C:4F8BH         SYMBOL        L?0799
  C:4F93H         SYMBOL        L?0800
  C:4F96H         SYMBOL        L?0801
  C:4F9EH         SYMBOL        L?0802
  C:4FADH         SYMBOL        L?0803
  C:4FADH         SYMBOL        L?0804
  C:4FB6H         SYMBOL        L?0805
  C:4FB6H         SYMBOL        L?0806
  C:4FBFH         SYMBOL        L?0807
  C:4FBFH         SYMBOL        L?0808
  C:4FC6H         SYMBOL        L?0809
  C:4FC6H         SYMBOL        L?0810
  C:4FCDH         SYMBOL        L?0811
  C:4FCDH         SYMBOL        L?0812
  C:4FD4H         SYMBOL        L?0813
  C:4FD4H         SYMBOL        L?0814
  C:4FDBH         SYMBOL        L?0815
  C:4FDBH         SYMBOL        L?0816
  C:4FE2H         SYMBOL        L?0817
  C:4FEEH         SYMBOL        L?0818
  C:4FF9H         SYMBOL        L?0819
  C:5004H         SYMBOL        L?0820
  C:5010H         SYMBOL        L?0821
  C:501CH         SYMBOL        L?0822
  C:5027H         SYMBOL        L?0823
  C:502FH         SYMBOL        L?0824
  C:503AH         SYMBOL        L?0825
  C:503BH         SYMBOL        L?0826
  C:5042H         SYMBOL        L?0827
  C:504DH         SYMBOL        L?0828
  C:5058H         SYMBOL        L?0830
BL51 BANKED LINKER/LOCATER V6.22            10/13/2015  11:10:35  PAGE 30


  C:5058H         SYMBOL        L?0831
  C:505FH         SYMBOL        L?0832
  C:5069H         SYMBOL        L?0833
  C:5073H         SYMBOL        L?0834
  C:5073H         SYMBOL        L?0835
  C:5079H         SYMBOL        L?0836
  C:5079H         SYMBOL        L?0837
  C:5080H         SYMBOL        L?0838
  C:508AH         SYMBOL        L?0839
  C:5094H         SYMBOL        L?0840
  C:509EH         SYMBOL        L?0841
  C:50A8H         SYMBOL        L?0842
  C:50B2H         SYMBOL        L?0843
  C:50B2H         SYMBOL        L?0844
  C:50B9H         SYMBOL        L?0845
  C:50C3H         SYMBOL        L?0846
  -------         PROC          COM02A1
  -------         ENDPROC       COM02A1
  -------         PROC          AUTOMAT_LEDS
  C:5EF6H         LINE#         320
  C:5EF6H         LINE#         321
  C:5EF6H         LINE#         323
  C:5EFCH         LINE#         324
  C:5F04H         LINE#         326
  C:5F08H         LINE#         327
  C:5F10H         LINE#         329
  C:5F13H         LINE#         330
  C:5F1AH         LINE#         332
  C:5F27H         LINE#         334
  C:5F30H         LINE#         335
  C:5F33H         LINE#         336
  C:5F33H         LINE#         338
  C:5F36H         LINE#         340
  C:5F39H         LINE#         342
  C:5F52H         LINE#         343
  C:5F52H         LINE#         344
  C:5F5AH         LINE#         345
  C:5F62H         LINE#         346
  C:5F6AH         LINE#         347
  C:5F72H         LINE#         348
  C:5F72H         LINE#         351
  C:5F7AH         LINE#         354
  C:5F80H         LINE#         355
  C:5F82H         LINE#         358
  C:5F8AH         LINE#         360
  C:5F91H         LINE#         362
  C:5F99H         LINE#         365
  C:5F9EH         LINE#         367
  C:5FA5H         LINE#         368
  C:5FAAH         LINE#         370
  C:5FAEH         LINE#         371
  C:5FB5H         LINE#         373
  C:5FBBH         LINE#         374
  C:5FC2H         LINE#         376
  C:5FC6H         LINE#         377
  C:5FCDH         LINE#         379
  C:5FD1H         LINE#         380
  C:5FD7H         LINE#         381
  -------         ENDPROC       AUTOMAT_LEDS
  -------         PROC          _READFLASH
  D:0030H         SYMBOL        pread
  D:0004H         SYMBOL        amount
  -------         DO            
  D:0006H         SYMBOL        i
  -------         ENDDO         
BL51 BANKED LINKER/LOCATER V6.22            10/13/2015  11:10:35  PAGE 31


  C:6CDDH         LINE#         384
  C:6CE1H         LINE#         387
  C:6CE1H         LINE#         389
  C:6CE4H         LINE#         390
  C:6D0CH         LINE#         391
  C:6D0FH         LINE#         392
  -------         ENDPROC       _READFLASH
  -------         PROC          _WRITEFLASH
  D:0030H         SYMBOL        pwrite
  D:0032H         SYMBOL        amount
  -------         DO            
  D:0006H         SYMBOL        i
  -------         ENDDO         
  C:6B03H         LINE#         394
  C:6B0BH         LINE#         395
  C:6B0BH         LINE#         398
  C:6B0EH         LINE#         399
  C:6B11H         LINE#         400
  C:6B14H         LINE#         401
  C:6B14H         LINE#         403
  C:6B14H         LINE#         404
  C:6B14H         LINE#         405
  C:6B17H         LINE#         406
  C:6B1EH         LINE#         407
  C:6B21H         LINE#         408
  C:6B24H         LINE#         410
  C:6B4CH         LINE#         411
  C:6B4FH         LINE#         412
  C:6B52H         LINE#         413
  C:6B54H         LINE#         414
  C:6B57H         LINE#         415
  -------         ENDPROC       _WRITEFLASH
  -------         PROC          READSCRATCHPAD1
  -------         DO            
  D:0007H         SYMBOL        c
  D:0004H         SYMBOL        pread
  -------         ENDDO         
  C:6D10H         LINE#         435
  C:6D10H         LINE#         436
  C:6D10H         LINE#         437
  C:6D12H         LINE#         438
  C:6D14H         LINE#         439
  C:6D16H         LINE#         440
  C:6D19H         LINE#         441
  C:6D3FH         LINE#         442
  C:6D42H         LINE#         443
  -------         ENDPROC       READSCRATCHPAD1
  -------         PROC          L?0753
  -------         ENDPROC       L?0753
  -------         PROC          WRITESCRATCHPAD1
  -------         DO            
  D:0001H         SYMBOL        c
  D:0006H         SYMBOL        pwrite
  -------         ENDDO         
  C:6A65H         LINE#         445
  C:6A65H         LINE#         446
  C:6A65H         LINE#         447
  C:6A67H         LINE#         448
  C:6A69H         LINE#         450
  C:6A6CH         LINE#         451
  C:6A6FH         LINE#         452
  C:6A71H         LINE#         453
  C:6A74H         LINE#         454
  C:6A74H         LINE#         456
  C:6A74H         LINE#         457
BL51 BANKED LINKER/LOCATER V6.22            10/13/2015  11:10:35  PAGE 32


  C:6A74H         LINE#         458
  C:6A77H         LINE#         459
  C:6A7CH         LINE#         460
  C:6A7FH         LINE#         461
  C:6A82H         LINE#         463
  C:6AA2H         LINE#         464
  C:6AA5H         LINE#         465
  C:6AA7H         LINE#         466
  C:6AAAH         LINE#         467
  -------         ENDPROC       WRITESCRATCHPAD1
  -------         PROC          WRITEOUTPUTDATA
  -------         DO            
  D:0007H         SYMBOL        i
  D:0029H         SYMBOL        pStream
  -------         ENDDO         
  C:67DEH         LINE#         470
  C:67DEH         LINE#         473
  C:67DEH         LINE#         477
  C:67E9H         LINE#         478
  C:67EFH         LINE#         480
  C:67F8H         LINE#         481
  C:6821H         LINE#         482
  C:682AH         LINE#         483
  C:683AH         LINE#         484
  C:684AH         LINE#         485
  C:685AH         LINE#         486
  C:686AH         LINE#         487
  -------         ENDPROC       WRITEOUTPUTDATA
  -------         PROC          GETFDMASK
  D:0029H         SYMBOL        EMask
  -------         DO            
  X:1BC6H         SYMBOL        cnt1
  X:1BC7H         SYMBOL        cnt2
  X:1BC8H         SYMBOL        Result
  X:1BC9H         SYMBOL        tmp
  -------         ENDDO         
  C:6282H         LINE#         489
  C:6282H         LINE#         495
  C:6282H         LINE#         498
  C:6287H         LINE#         501
  C:629CH         LINE#         502
  C:629CH         LINE#         503
  C:62A5H         LINE#         504
  C:62ABH         LINE#         505
  C:62BDH         LINE#         506
  C:62D7H         LINE#         507
  C:62D7H         LINE#         508
  C:62FEH         LINE#         509
  C:6301H         LINE#         510
  C:6301H         LINE#         511
  C:630FH         LINE#         512
  C:6312H         LINE#         513
  C:631FH         LINE#         514
  C:6337H         LINE#         515
  C:6337H         LINE#         516
  C:6340H         LINE#         517
  C:6349H         LINE#         518
  C:634EH         LINE#         519
  -------         ENDPROC       GETFDMASK
  -------         PROC          SETRDSEARCHRA
  C:6BEBH         LINE#         521
  C:6BEBH         LINE#         522
  C:6BEBH         LINE#         523
  C:6BF1H         LINE#         524
  C:6BF4H         LINE#         526
BL51 BANKED LINKER/LOCATER V6.22            10/13/2015  11:10:35  PAGE 33


  C:6BFEH         LINE#         528
  C:6BFEH         LINE#         529
  C:6C03H         LINE#         530
  C:6C22H         LINE#         531
  C:6C2BH         LINE#         532
  C:6C2BH         LINE#         533
  -------         ENDPROC       SETRDSEARCHRA
  -------         PROC          AUTOMAT__RA
  C:5D57H         LINE#         535
  C:5D57H         LINE#         536
  C:5D57H         LINE#         537
  C:5D71H         LINE#         538
  C:5D71H         LINE#         539
  C:5D71H         LINE#         540
  C:5DAAH         LINE#         541
  C:5DBCH         LINE#         542
  C:5DBFH         LINE#         543
  C:5DC4H         LINE#         544
  C:5DCAH         LINE#         546
  C:5DCAH         LINE#         547
  C:5DCAH         LINE#         549
  C:5DCFH         LINE#         550
  C:5DCFH         LINE#         551
  C:5DD4H         LINE#         553
  C:5DD4H         LINE#         554
  C:5DDBH         LINE#         555
  C:5DDBH         LINE#         559
  C:5DDEH         LINE#         560
  C:5DE1H         LINE#         561
  C:5DF3H         LINE#         562
  C:5DF9H         LINE#         563
  C:5DF9H         LINE#         564
  C:5E0FH         LINE#         566
  C:5E12H         LINE#         568
  C:5E2AH         LINE#         569
  C:5E2FH         LINE#         570
  C:5E2FH         LINE#         571
  C:5E2FH         LINE#         572
  C:5E39H         LINE#         573
  C:5E3FH         LINE#         574
  C:5E42H         LINE#         576
  C:5E42H         LINE#         578
  C:5E67H         LINE#         580
  C:5E77H         LINE#         583
  C:5E77H         LINE#         584
  C:5E87H         LINE#         585
  C:5E8AH         LINE#         586
  C:5E94H         LINE#         587
  C:5E9CH         LINE#         589
  C:5E9CH         LINE#         590
  C:5EA2H         LINE#         591
  C:5EB7H         LINE#         592
  C:5ECAH         LINE#         593
  C:5ECAH         LINE#         594
  C:5ECDH         LINE#         596
  C:5ED2H         LINE#         597
  C:5ED2H         LINE#         599
  C:5ED7H         LINE#         600
  C:5EE2H         LINE#         601
  C:5EE9H         LINE#         602
  C:5EEFH         LINE#         603
  C:5EF0H         LINE#         607
  C:5EF0H         LINE#         608
  C:5EF5H         LINE#         609
  C:5EF5H         LINE#         610
BL51 BANKED LINKER/LOCATER V6.22            10/13/2015  11:10:35  PAGE 34


  -------         ENDPROC       AUTOMAT__RA
  -------         PROC          SETRDSEARCH
  C:6C69H         LINE#         612
  C:6C69H         LINE#         613
  C:6C69H         LINE#         615
  C:6C73H         LINE#         617
  C:6C73H         LINE#         618
  C:6C79H         LINE#         619
  C:6C93H         LINE#         620
  C:6C9CH         LINE#         621
  C:6C9CH         LINE#         623
  C:6CA2H         LINE#         624
  -------         ENDPROC       SETRDSEARCH
  -------         PROC          AUTOMAT_SEARCH
  -------         DO            
  D:0028H         SYMBOL        i
  -------         ENDDO         
  C:5BAAH         LINE#         627
  C:5BAAH         LINE#         633
  C:5BAAH         LINE#         636
  C:5BB9H         LINE#         638
  C:5BD0H         LINE#         639
  C:5BD0H         LINE#         640
  C:5BD0H         LINE#         642
  C:5BD9H         LINE#         643
  C:5BDCH         LINE#         645
  C:5BE3H         LINE#         648
  C:5BE3H         LINE#         651
  C:5BEDH         LINE#         653
  C:5BF0H         LINE#         656
  C:5C09H         LINE#         657
  C:5C0EH         LINE#         658
  C:5C0EH         LINE#         659
  C:5C11H         LINE#         661
  C:5C11H         LINE#         663
  C:5C29H         LINE#         665
  C:5C29H         LINE#         668
  C:5C33H         LINE#         670
  C:5C3FH         LINE#         671
  C:5C45H         LINE#         674
  C:5C5EH         LINE#         675
  C:5C63H         LINE#         676
  C:5C63H         LINE#         677
  C:5C66H         LINE#         679
  C:5C66H         LINE#         681
  C:5C7BH         LINE#         682
  C:5C7BH         LINE#         683
  C:5C7EH         LINE#         685
  C:5C7EH         LINE#         688
  C:5CA3H         LINE#         690
  C:5CA3H         LINE#         694
  C:5CA6H         LINE#         695
  C:5CA6H         LINE#         696
  C:5CB7H         LINE#         697
  C:5CBDH         LINE#         698
  C:5CBDH         LINE#         699
  C:5CBDH         LINE#         700
  C:5CBFH         LINE#         702
  C:5CBFH         LINE#         703
  C:5CC5H         LINE#         704
  C:5CC7H         LINE#         705
  C:5CCDH         LINE#         707
  C:5CCDH         LINE#         709
  C:5CD0H         LINE#         710
  C:5CE7H         LINE#         712
BL51 BANKED LINKER/LOCATER V6.22            10/13/2015  11:10:35  PAGE 35


  C:5CE7H         LINE#         713
  C:5CEAH         LINE#         714
  C:5CFCH         LINE#         715
  C:5D0CH         LINE#         716
  C:5D0CH         LINE#         718
  C:5D0FH         LINE#         721
  C:5D0FH         LINE#         722
  C:5D0FH         LINE#         723
  C:5D19H         LINE#         724
  C:5D1EH         LINE#         725
  C:5D1EH         LINE#         737
  C:5D36H         LINE#         738
  C:5D36H         LINE#         739
  C:5D40H         LINE#         740
  C:5D46H         LINE#         741
  C:5D46H         LINE#         742
  C:5D47H         LINE#         747
  C:5D47H         LINE#         750
  C:5D47H         LINE#         751
  C:5D4FH         LINE#         753
  C:5D51H         LINE#         754
  C:5D56H         LINE#         755
  C:5D56H         LINE#         756
  -------         ENDPROC       AUTOMAT_SEARCH
  -------         PROC          TEST_IN_CS
  -------         DO            
  D:0007H         SYMBOL        c
  X:1BC6H         SYMBOL        CS
  -------         ENDDO         
  C:6C2CH         LINE#         758
  C:6C2CH         LINE#         759
  C:6C2CH         LINE#         760
  C:6C2EH         LINE#         761
  C:6C34H         LINE#         763
  C:6C51H         LINE#         764
  C:6C67H         LINE#         765
  C:6C68H         LINE#         766
  -------         ENDPROC       TEST_IN_CS
  C:4B49H         SYMBOL        L?0778
  C:4B54H         SYMBOL        L?0779
  C:4B67H         SYMBOL        L?0829
  -------         PROC          AUTOMAT_REQUEST
  -------         DO            
  D:0028H         SYMBOL        i
  X:1BC4H         SYMBOL        CheckSum
  -------         ENDDO         
  C:4363H         LINE#         770
  C:4363H         LINE#         771
  C:4363H         LINE#         775
  C:43B9H         LINE#         776
  C:43B9H         LINE#         777
  C:43B9H         LINE#         779
  C:43C3H         LINE#         780
  C:43C3H         LINE#         781
  C:43CBH         LINE#         782
  C:43D1H         LINE#         783
  C:43D2H         LINE#         787
  C:43D2H         LINE#         789
  C:43DBH         LINE#         791
  C:43DBH         LINE#         792
  C:43DBH         LINE#         793
  C:43DBH         LINE#         794
  C:43DBH         LINE#         796
  C:43E0H         LINE#         797
  C:43E0H         LINE#         798
BL51 BANKED LINKER/LOCATER V6.22            10/13/2015  11:10:35  PAGE 36


  C:43ECH         LINE#         799
  C:43F4H         LINE#         800
  C:4400H         LINE#         801
  C:440FH         LINE#         802
  C:441EH         LINE#         804
  C:4420H         LINE#         805
  C:4420H         LINE#         807
  C:4422H         LINE#         809
  C:4425H         LINE#         810
  C:4435H         LINE#         812
  C:444EH         LINE#         814
  C:4496H         LINE#         815
  C:4496H         LINE#         816
  C:4496H         LINE#         817
  C:4496H         LINE#         818
  C:4496H         LINE#         819
  C:4496H         LINE#         820
  C:4496H         LINE#         821
  C:4496H         LINE#         822
  C:4496H         LINE#         823
  C:4496H         LINE#         824
  C:449BH         LINE#         825
  C:449CH         LINE#         827
  C:449CH         LINE#         828
  C:449FH         LINE#         829
  C:44A6H         LINE#         830
  C:44A6H         LINE#         831
  C:44A9H         LINE#         835
  C:44A9H         LINE#         836
  C:44A9H         LINE#         838
  C:44B1H         LINE#         840
  C:44B4H         LINE#         842
  C:44C9H         LINE#         844
  C:44E0H         LINE#         846
  C:44EFH         LINE#         847
  C:44F7H         LINE#         848
  C:44FEH         LINE#         851
  C:4504H         LINE#         852
  C:4516H         LINE#         853
  C:4516H         LINE#         854
  C:4529H         LINE#         855
  C:454BH         LINE#         858
  C:4551H         LINE#         859
  C:4564H         LINE#         860
  C:4564H         LINE#         861
  C:4577H         LINE#         862
  C:4599H         LINE#         864
  C:459CH         LINE#         866
  C:45A3H         LINE#         869
  C:45A3H         LINE#         870
  C:45A3H         LINE#         872
  C:45A8H         LINE#         874
  C:45AEH         LINE#         875
  C:45B4H         LINE#         876
  C:45B6H         LINE#         877
  C:45C7H         LINE#         880
  C:45CAH         LINE#         882
  C:45D3H         LINE#         884
  C:45D6H         LINE#         886
  C:45DAH         LINE#         887
  C:45DFH         LINE#         889
  C:45E7H         LINE#         890
  C:45E7H         LINE#         891
  C:45EAH         LINE#         893
  C:45EAH         LINE#         895
BL51 BANKED LINKER/LOCATER V6.22            10/13/2015  11:10:35  PAGE 37


  C:45EFH         LINE#         896
  C:45F1H         LINE#         898
  C:45F8H         LINE#         901
  C:45F8H         LINE#         903
  C:4600H         LINE#         905
  C:4604H         LINE#         906
  C:4606H         LINE#         909
  C:4607H         LINE#         911
  C:460EH         LINE#         912
  C:4625H         LINE#         913
  C:463DH         LINE#         914
  C:4655H         LINE#         915
  C:466DH         LINE#         916
  C:4683H         LINE#         918
  C:4686H         LINE#         920
  C:4686H         LINE#         921
  C:4686H         LINE#         922
  C:4686H         LINE#         924
  C:4686H         LINE#         925
  C:4689H         LINE#         928
  C:4689H         LINE#         930
  C:4691H         LINE#         933
  C:4693H         LINE#         935
  C:469AH         LINE#         936
  C:469CH         LINE#         937
  C:469CH         LINE#         938
  C:46AFH         LINE#         939
  C:46C1H         LINE#         940
  C:46C7H         LINE#         941
  C:46CFH         LINE#         942
  C:46D7H         LINE#         944
  C:46DAH         LINE#         945
  C:46E2H         LINE#         946
  C:46E2H         LINE#         948
  C:46E5H         LINE#         949
  C:46ECH         LINE#         952
  C:46ECH         LINE#         954
  C:46F4H         LINE#         957
  C:46FDH         LINE#         958
  C:46FDH         LINE#         959
  C:470AH         LINE#         961
  C:470DH         LINE#         963
  C:4715H         LINE#         964
  C:4715H         LINE#         965
  C:4715H         LINE#         967
  C:4715H         LINE#         968
  C:4715H         LINE#         969
  C:4715H         LINE#         970
  C:4718H         LINE#         971
  C:4718H         LINE#         972
  C:4718H         LINE#         974
  C:471AH         LINE#         977
  C:471AH         LINE#         979
  C:4722H         LINE#         981
  C:4729H         LINE#         982
  C:4729H         LINE#         983
  C:4729H         LINE#         984
  C:472FH         LINE#         985
  C:4732H         LINE#         986
  C:4732H         LINE#         987
  C:473EH         LINE#         988
  C:4740H         LINE#         990
  C:4747H         LINE#         993
  C:4747H         LINE#         995
  C:474EH         LINE#         996
BL51 BANKED LINKER/LOCATER V6.22            10/13/2015  11:10:35  PAGE 38


  C:4756H         LINE#         998
  C:475BH         LINE#         999
  C:475EH         LINE#         1001
  C:4769H         LINE#         1002
  C:476EH         LINE#         1004
  C:4774H         LINE#         1007
  C:4774H         LINE#         1009
  C:477CH         LINE#         1011
  C:477FH         LINE#         1012
  C:478AH         LINE#         1013
  C:478FH         LINE#         1014
  C:4795H         LINE#         1017
  C:4795H         LINE#         1018
  C:479DH         LINE#         1019
  C:47ADH         LINE#         1021
  C:47B5H         LINE#         1022
  C:47B5H         LINE#         1023
  C:47B5H         LINE#         1025
  C:47B5H         LINE#         1026
  C:47B5H         LINE#         1027
  C:47B5H         LINE#         1028
  C:47B8H         LINE#         1029
  C:47B8H         LINE#         1030
  C:47BBH         LINE#         1031
  C:47C6H         LINE#         1032
  C:47CBH         LINE#         1033
  C:47D1H         LINE#         1036
  C:47D1H         LINE#         1037
  C:47D6H         LINE#         1038
  C:47DCH         LINE#         1040
  C:47DCH         LINE#         1041
  C:47E8H         LINE#         1042
  C:47E8H         LINE#         1043
  C:47FBH         LINE#         1044
  C:481BH         LINE#         1045
  C:481BH         LINE#         1046
  C:481BH         LINE#         1047
  C:4823H         LINE#         1048
  C:4825H         LINE#         1049
  C:4825H         LINE#         1050
  C:4830H         LINE#         1051
  C:4832H         LINE#         1052
  C:4832H         LINE#         1053
  C:483AH         LINE#         1054
  C:483CH         LINE#         1055
  C:483CH         LINE#         1056
  C:4844H         LINE#         1057
  C:4846H         LINE#         1058
  C:4846H         LINE#         1059
  C:484EH         LINE#         1060
  C:4850H         LINE#         1061
  C:4850H         LINE#         1062
  C:4860H         LINE#         1063
  C:4860H         LINE#         1064
  C:4860H         LINE#         1066
  C:4860H         LINE#         1068
  C:4865H         LINE#         1070
  C:4869H         LINE#         1072
  C:486CH         LINE#         1073
  C:486FH         LINE#         1076
  C:486FH         LINE#         1078
  C:486FH         LINE#         1081
  C:4875H         LINE#         1082
  C:4875H         LINE#         1083
  C:487DH         LINE#         1084
BL51 BANKED LINKER/LOCATER V6.22            10/13/2015  11:10:35  PAGE 39


  C:4880H         LINE#         1085
  C:4882H         LINE#         1087
  C:4884H         LINE#         1089
  C:4897H         LINE#         1090
  C:48AAH         LINE#         1091
  C:48BDH         LINE#         1092
  C:48D0H         LINE#         1094
  C:48D5H         LINE#         1096
  C:48DBH         LINE#         1099
  C:48DBH         LINE#         1101
  C:48DBH         LINE#         1104
  C:48E1H         LINE#         1105
  C:48E1H         LINE#         1106
  C:48E9H         LINE#         1107
  C:48ECH         LINE#         1108
  C:48ECH         LINE#         1110
  C:48EFH         LINE#         1111
  C:48EFH         LINE#         1112
  C:48FDH         LINE#         1113
  C:4909H         LINE#         1114
  C:490FH         LINE#         1116
  C:4914H         LINE#         1118
  C:491AH         LINE#         1122
  C:491AH         LINE#         1124
  C:4920H         LINE#         1125
  C:4933H         LINE#         1127
  C:493CH         LINE#         1128
  C:493FH         LINE#         1129
  C:493FH         LINE#         1130
  C:4950H         LINE#         1131
  C:4956H         LINE#         1133
  C:4956H         LINE#         1135
  C:495DH         LINE#         1139
  C:495DH         LINE#         1144
  C:495FH         LINE#         1145
  C:496FH         LINE#         1146
  C:4983H         LINE#         1147
  C:4986H         LINE#         1149
  C:4988H         LINE#         1150
  C:4998H         LINE#         1151
  C:49A9H         LINE#         1153
  C:49B1H         LINE#         1154
  C:49B1H         LINE#         1155
  C:49B9H         LINE#         1156
  C:49B9H         LINE#         1157
  C:49BBH         LINE#         1158
  C:49BBH         LINE#         1159
  C:49C1H         LINE#         1160
  C:49CBH         LINE#         1161
  C:49CEH         LINE#         1162
  C:49D4H         LINE#         1163
  C:49DAH         LINE#         1165
  C:49DAH         LINE#         1166
  C:49E0H         LINE#         1167
  C:49E1H         LINE#         1169
  C:49E1H         LINE#         1170
  C:49E9H         LINE#         1171
  C:49E9H         LINE#         1172
  C:49EBH         LINE#         1173
  C:49EBH         LINE#         1174
  C:49F1H         LINE#         1175
  C:49FBH         LINE#         1176
  C:49FEH         LINE#         1177
  C:4A04H         LINE#         1178
  C:4A0AH         LINE#         1180
BL51 BANKED LINKER/LOCATER V6.22            10/13/2015  11:10:35  PAGE 40


  C:4A0AH         LINE#         1181
  C:4A10H         LINE#         1182
  C:4A11H         LINE#         1186
  C:4A11H         LINE#         1188
  C:4A18H         LINE#         1190
  C:4A21H         LINE#         1192
  C:4A26H         LINE#         1194
  C:4A2DH         LINE#         1197
  C:4A2DH         LINE#         1199
  C:4A34H         LINE#         1202
  C:4A34H         LINE#         1205
  C:4A37H         LINE#         1207
  C:4A3DH         LINE#         1210
  C:4A3DH         LINE#         1212
  C:4A49H         LINE#         1216
  C:4A4CH         LINE#         1218
  C:4A52H         LINE#         1247
  C:4A52H         LINE#         1250
  C:4A58H         LINE#         1251
  C:4A5EH         LINE#         1252
  C:4A61H         LINE#         1253
  C:4A64H         LINE#         1255
  C:4A67H         LINE#         1256
  C:4A6DH         LINE#         1259
  C:4A6DH         LINE#         1261
  C:4A77H         LINE#         1264
  C:4A77H         LINE#         1265
  C:4A77H         LINE#         1266
  C:4A7AH         LINE#         1267
  C:4A7CH         LINE#         1268
  C:4A7EH         LINE#         1269
  C:4A81H         LINE#         1270
  C:4A81H         LINE#         1271
  C:4A83H         LINE#         1273
  C:4A8CH         LINE#         1274
  C:4A94H         LINE#         1275
  C:4A9EH         LINE#         1276
  C:4AAAH         LINE#         1277
  C:4AAAH         LINE#         1278
  C:4AB3H         LINE#         1279
  C:4AC2H         LINE#         1280
  C:4AD0H         LINE#         1282
  C:4AD3H         LINE#         1283
  C:4AD3H         LINE#         1284
  C:4AD6H         LINE#         1286
  C:4ADBH         LINE#         1288
  C:4AE0H         LINE#         1291
  C:4AE0H         LINE#         1292
  C:4AE0H         LINE#         1293
  C:4AE0H         LINE#         1295
  C:4AE9H         LINE#         1297
  C:4AEFH         LINE#         1298
  C:4B14H         LINE#         1299
  C:4B1AH         LINE#         1300
  C:4B20H         LINE#         1301
  C:4B23H         LINE#         1303
  C:4B23H         LINE#         1304
  C:4B28H         LINE#         1306
  C:4B2DH         LINE#         1309
  C:4B2DH         LINE#         1310
  C:4B36H         LINE#         1311
  C:4B36H         LINE#         1312
  C:4B38H         LINE#         1313
  C:4B3EH         LINE#         1314
  C:4B3FH         LINE#         1316
BL51 BANKED LINKER/LOCATER V6.22            10/13/2015  11:10:35  PAGE 41


  C:4B3FH         LINE#         1317
  C:4B42H         LINE#         1318
  C:4B48H         LINE#         1319
  C:4B48H         LINE#         1320
  C:4B48H         LINE#         1321
  C:4B48H         LINE#         1322
  -------         ENDPROC       AUTOMAT_REQUEST
  -------         PROC          AUTOMAT_ALARM
  C:5481H         LINE#         1324
  C:5481H         LINE#         1325
  C:5481H         LINE#         1326
  C:54A7H         LINE#         1327
  C:54A7H         LINE#         1328
  C:54A7H         LINE#         1330
  C:54B2H         LINE#         1332
  C:54B6H         LINE#         1333
  C:54B6H         LINE#         1334
  C:54BCH         LINE#         1335
  C:54BFH         LINE#         1336
  C:54BFH         LINE#         1337
  C:54C1H         LINE#         1338
  C:54CCH         LINE#         1339
  C:54D1H         LINE#         1340
  C:54D8H         LINE#         1342
  C:54D8H         LINE#         1343
  C:54D8H         LINE#         1345
  C:54DEH         LINE#         1348
  C:54E8H         LINE#         1349
  C:54ECH         LINE#         1353
  C:54ECH         LINE#         1359
  C:54ECH         LINE#         1360
  C:54F2H         LINE#         1361
  C:54FCH         LINE#         1362
  C:54FCH         LINE#         1363
  C:54FFH         LINE#         1365
  C:5513H         LINE#         1366
  C:5517H         LINE#         1367
  C:551AH         LINE#         1370
  C:551AH         LINE#         1371
  C:551AH         LINE#         1373
  C:5523H         LINE#         1376
  C:5523H         LINE#         1377
  C:5523H         LINE#         1378
  C:5523H         LINE#         1379
  C:5523H         LINE#         1381
  C:5528H         LINE#         1382
  C:5528H         LINE#         1383
  C:5534H         LINE#         1384
  C:5536H         LINE#         1385
  C:5536H         LINE#         1387
  C:5538H         LINE#         1389
  C:553DH         LINE#         1391
  C:5544H         LINE#         1394
  C:5544H         LINE#         1396
  C:5549H         LINE#         1399
  C:5564H         LINE#         1400
  C:556AH         LINE#         1402
  C:5570H         LINE#         1403
  C:5578H         LINE#         1405
  C:5582H         LINE#         1407
  C:5589H         LINE#         1410
  C:5589H         LINE#         1412
  C:5594H         LINE#         1413
  C:55B0H         LINE#         1414
  C:55B0H         LINE#         1415
BL51 BANKED LINKER/LOCATER V6.22            10/13/2015  11:10:35  PAGE 42


  C:55B2H         LINE#         1416
  C:55C5H         LINE#         1417
  C:55CEH         LINE#         1418
  C:55D1H         LINE#         1420
  C:55D1H         LINE#         1421
  C:55D1H         LINE#         1422
  C:55E1H         LINE#         1423
  C:55E4H         LINE#         1424
  C:55EEH         LINE#         1425
  C:55F6H         LINE#         1427
  C:55F6H         LINE#         1428
  C:55FCH         LINE#         1429
  C:5611H         LINE#         1430
  C:5611H         LINE#         1431
  C:5611H         LINE#         1433
  C:5614H         LINE#         1435
  C:5626H         LINE#         1436
  C:5632H         LINE#         1438
  C:5642H         LINE#         1440
  C:5649H         LINE#         1441
  C:5649H         LINE#         1442
  C:5650H         LINE#         1445
  C:5650H         LINE#         1446
  C:5652H         LINE#         1447
  C:5658H         LINE#         1448
  C:565EH         LINE#         1449
  C:5662H         LINE#         1450
  C:566CH         LINE#         1451
  C:5671H         LINE#         1452
  C:5674H         LINE#         1454
  C:5674H         LINE#         1456
  C:5679H         LINE#         1457
  C:5679H         LINE#         1458
  C:5683H         LINE#         1459
  C:568DH         LINE#         1460
  C:5697H         LINE#         1461
  C:569AH         LINE#         1462
  C:56A3H         LINE#         1463
  C:56ABH         LINE#         1464
  C:56B1H         LINE#         1465
  C:56B1H         LINE#         1466
  C:56B1H         LINE#         1467
  C:56B1H         LINE#         1468
  C:56B3H         LINE#         1470
  C:56BDH         LINE#         1472
  C:56D1H         LINE#         1474
  C:56D3H         LINE#         1476
  C:56D6H         LINE#         1477
  C:56DEH         LINE#         1478
  C:56E2H         LINE#         1480
  C:56E4H         LINE#         1483
  C:56E4H         LINE#         1485
  C:56E9H         LINE#         1487
  C:56EFH         LINE#         1489
  C:56F2H         LINE#         1490
  C:56F8H         LINE#         1494
  C:56FFH         LINE#         1497
  C:56FFH         LINE#         1500
  C:570AH         LINE#         1501
  C:5715H         LINE#         1502
  C:5719H         LINE#         1503
  C:5719H         LINE#         1504
  C:571FH         LINE#         1505
  C:5721H         LINE#         1506
  C:5726H         LINE#         1508
BL51 BANKED LINKER/LOCATER V6.22            10/13/2015  11:10:35  PAGE 43


  C:5726H         LINE#         1509
  C:572CH         LINE#         1510
  C:573AH         LINE#         1511
  C:573AH         LINE#         1512
  C:573DH         LINE#         1514
  C:573FH         LINE#         1515
  C:5744H         LINE#         1516
  C:5746H         LINE#         1518
  C:5746H         LINE#         1519
  C:5749H         LINE#         1520
  C:5753H         LINE#         1522
  C:5753H         LINE#         1523
  C:5753H         LINE#         1524
  C:5759H         LINE#         1525
  C:575CH         LINE#         1527
  C:5762H         LINE#         1528
  C:5763H         LINE#         1532
  C:5763H         LINE#         1534
  C:576AH         LINE#         1537
  C:576EH         LINE#         1538
  C:5771H         LINE#         1539
  C:5771H         LINE#         1540
  C:5773H         LINE#         1541
  C:577CH         LINE#         1542
  C:577FH         LINE#         1543
  C:577FH         LINE#         1544
  C:5782H         LINE#         1546
  C:5788H         LINE#         1547
  C:5788H         LINE#         1548
  C:5788H         LINE#         1549
  C:578BH         LINE#         1551
  C:578DH         LINE#         1553
  C:578FH         LINE#         1556
  C:578FH         LINE#         1557
  C:5794H         LINE#         1558
  C:5794H         LINE#         1559
  -------         ENDPROC       AUTOMAT_ALARM
  -------         PROC          INIT_LIMITS_DATA
  C:6DE1H         LINE#         1563
  C:6DE1H         LINE#         1564
  C:6DE1H         LINE#         1566
  -------         ENDPROC       INIT_LIMITS_DATA
  C:5471H         SYMBOL        L?0760
  -------         PROC          OPENDEVICEPROFILE
  -------         DO            
  X:1BC4H         SYMBOL        CheckSum
  D:0028H         SYMBOL        pCheckSum
  X:1BC6H         SYMBOL        Int
  B:0026H.5       SYMBOL        bWrPr2
  -------         ENDDO         
  C:50CDH         LINE#         1568
  C:50CDH         LINE#         1570
  C:50CDH         LINE#         1572
  C:50D3H         LINE#         1575
  C:50D5H         LINE#         1579
  C:50DAH         LINE#         1581
  C:50DEH         LINE#         1583
  C:50FAH         LINE#         1585
  C:5107H         LINE#         1586
  C:5107H         LINE#         1587
  C:5127H         LINE#         1588
  C:5148H         LINE#         1589
  C:5169H         LINE#         1591
  C:518DH         LINE#         1592
  C:518DH         LINE#         1594
BL51 BANKED LINKER/LOCATER V6.22            10/13/2015  11:10:35  PAGE 44


  C:518DH         LINE#         1595
  C:518FH         LINE#         1597
  C:5199H         LINE#         1598
  C:51A3H         LINE#         1599
  C:51ADH         LINE#         1600
  C:51B7H         LINE#         1601
  C:51C1H         LINE#         1602
  C:51CBH         LINE#         1604
  C:51D1H         LINE#         1605
  C:51D5H         LINE#         1606
  C:51D9H         LINE#         1607
  C:51DDH         LINE#         1608
  C:51E3H         LINE#         1609
  C:51E7H         LINE#         1610
  C:51EEH         LINE#         1611
  C:51F6H         LINE#         1613
  C:51F9H         LINE#         1614
  C:51FCH         LINE#         1615
  C:51FFH         LINE#         1616
  C:5202H         LINE#         1617
  C:5205H         LINE#         1618
  C:5208H         LINE#         1619
  C:520BH         LINE#         1620
  C:520EH         LINE#         1622
  C:5214H         LINE#         1623
  C:5217H         LINE#         1624
  C:521CH         LINE#         1625
  C:521FH         LINE#         1626
  C:5224H         LINE#         1627
  C:5227H         LINE#         1628
  C:522CH         LINE#         1629
  C:522FH         LINE#         1631
  C:5233H         LINE#         1632
  C:5237H         LINE#         1633
  C:523BH         LINE#         1634
  C:523FH         LINE#         1636
  C:5244H         LINE#         1637
  C:5248H         LINE#         1638
  C:524CH         LINE#         1639
  C:5250H         LINE#         1641
  C:5255H         LINE#         1642
  C:5259H         LINE#         1643
  C:525DH         LINE#         1644
  C:5261H         LINE#         1646
  C:5267H         LINE#         1647
  C:5269H         LINE#         1648
  C:5269H         LINE#         1650
  C:526CH         LINE#         1652
  C:526FH         LINE#         1656
  C:5274H         LINE#         1658
  C:5279H         LINE#         1660
  C:5295H         LINE#         1662
  C:529FH         LINE#         1663
  C:52AAH         LINE#         1664
  C:52AAH         LINE#         1665
  C:52B3H         LINE#         1666
  C:52BBH         LINE#         1667
  C:52C0H         LINE#         1669
  C:52DCH         LINE#         1673
  C:52E7H         LINE#         1675
  C:52EDH         LINE#         1676
  C:5309H         LINE#         1678
  C:530CH         LINE#         1682
  C:5316H         LINE#         1683
  C:5316H         LINE#         1688
BL51 BANKED LINKER/LOCATER V6.22            10/13/2015  11:10:35  PAGE 45


  C:5325H         LINE#         1689
  C:534BH         LINE#         1693
  C:534BH         LINE#         1698
  C:534BH         LINE#         1699
  C:5352H         LINE#         1700
  C:5352H         LINE#         1702
  C:5357H         LINE#         1707
  C:535DH         LINE#         1708
  C:535DH         LINE#         1709
  C:535DH         LINE#         1710
  C:536BH         LINE#         1711
  C:5372H         LINE#         1714
  C:5379H         LINE#         1715
  C:5379H         LINE#         1716
  C:5385H         LINE#         1717
  C:539AH         LINE#         1718
  C:539AH         LINE#         1719
  C:53BEH         LINE#         1720
  C:53C1H         LINE#         1721
  C:53C3H         LINE#         1722
  C:53C5H         LINE#         1723
  C:53CAH         LINE#         1724
  C:53CAH         LINE#         1726
  C:53D6H         LINE#         1727
  C:53DEH         LINE#         1728
  C:53DEH         LINE#         1729
  C:53E1H         LINE#         1730
  C:53FDH         LINE#         1731
  C:5406H         LINE#         1732
  C:5406H         LINE#         1733
  C:5422H         LINE#         1734
  C:5425H         LINE#         1735
  C:5427H         LINE#         1736
  C:5427H         LINE#         1737
  C:5429H         LINE#         1738
  C:542EH         LINE#         1739
  C:5431H         LINE#         1741
  C:5434H         LINE#         1742
  C:5434H         LINE#         1744
  C:5450H         LINE#         1745
  C:5462H         LINE#         1746
  C:546AH         LINE#         1747
  C:546AH         LINE#         1750
  C:5470H         LINE#         1751
  -------         ENDPROC       OPENDEVICEPROFILE
  -------         PROC          RESET_STATE_LOG
  C:6DCDH         LINE#         1753
  C:6DCDH         LINE#         1754
  C:6DCDH         LINE#         1755
  C:6DD2H         LINE#         1756
  C:6DD6H         LINE#         1757
  -------         ENDPROC       RESET_STATE_LOG
  -------         PROC          CALL_PROGRAM_RESET
  -------         DO            
  D:0001H         SYMBOL        call_reset
  -------         ENDDO         
  C:6DD7H         LINE#         1767
  C:6DD7H         LINE#         1768
  C:6DD7H         LINE#         1769
  C:6DDBH         LINE#         1771
  C:6DDEH         LINE#         1772
  -------         ENDPROC       CALL_PROGRAM_RESET
  C:31F9H         SYMBOL        L?0731
  -------         PROC          MAIN
  C:2800H         LINE#         1776
BL51 BANKED LINKER/LOCATER V6.22            10/13/2015  11:10:35  PAGE 46


  C:2800H         LINE#         1777
  C:2800H         LINE#         1782
  C:2806H         LINE#         1788
  C:2808H         LINE#         1789
  C:280EH         LINE#         1790
  C:2810H         LINE#         1792
  C:2812H         LINE#         1793
  C:2814H         LINE#         1794
  C:2816H         LINE#         1795
  C:2818H         LINE#         1798
  C:2822H         LINE#         1799
  C:2828H         LINE#         1800
  C:282DH         LINE#         1801
  C:2832H         LINE#         1802
  C:2836H         LINE#         1803
  C:283AH         LINE#         1805
  C:2848H         LINE#         1808
  C:284AH         LINE#         1810
  C:284DH         LINE#         1811
  C:2853H         LINE#         1813
  C:2856H         LINE#         1819
  C:285CH         LINE#         1821
  C:286BH         LINE#         1823
  C:2871H         LINE#         1826
  C:2873H         LINE#         1828
  C:2876H         LINE#         1829
  C:2879H         LINE#         1831
  C:287FH         LINE#         1833
  C:2882H         LINE#         1835
  C:2885H         LINE#         1837
  C:28B9H         LINE#         1839
  C:28BCH         LINE#         1846
  C:28BFH         LINE#         1856
  C:28C2H         LINE#         1858
  C:28CFH         LINE#         1860
  C:28D6H         LINE#         1861
  C:28D6H         LINE#         1862
  C:28D8H         LINE#         1863
  C:28E7H         LINE#         1864
  C:28EFH         LINE#         1865
  C:28EFH         LINE#         1867
  C:28F7H         LINE#         1868
  C:28FEH         LINE#         1870
  C:2901H         LINE#         1875
  C:2901H         LINE#         1876
  C:2901H         LINE#         1877
  C:2904H         LINE#         1880
  C:2904H         LINE#         1881
  C:2904H         LINE#         1882
  C:2904H         LINE#         1883
  C:2909H         LINE#         1884
  C:290EH         LINE#         1886
  C:2921H         LINE#         1889
  C:292EH         LINE#         1890
  C:292EH         LINE#         1891
  C:293AH         LINE#         1892
  C:293AH         LINE#         1893
  C:293AH         LINE#         1894
  C:293AH         LINE#         1895
  C:2941H         LINE#         1896
  C:2943H         LINE#         1897
  C:2943H         LINE#         1898
  C:2943H         LINE#         1899
  C:2943H         LINE#         1900
  C:294AH         LINE#         1901
BL51 BANKED LINKER/LOCATER V6.22            10/13/2015  11:10:35  PAGE 47


  C:294AH         LINE#         1902
  C:294AH         LINE#         1904
  C:2952H         LINE#         1905
  C:2952H         LINE#         1908
  C:2960H         LINE#         1911
  C:2963H         LINE#         1915
  C:2966H         LINE#         1916
  C:296EH         LINE#         1917
  C:296EH         LINE#         1918
  C:2980H         LINE#         1919
  C:299DH         LINE#         1921
  C:29B4H         LINE#         1923
  C:29B4H         LINE#         1924
  C:29B9H         LINE#         1925
  C:29CCH         LINE#         1926
  C:29CCH         LINE#         1930
  C:29D4H         LINE#         1931
  C:29D4H         LINE#         1942
  C:29DDH         LINE#         1943
  C:29DDH         LINE#         1944
  C:29E1H         LINE#         1945
  C:29E1H         LINE#         1956
  C:29EAH         LINE#         1957
  C:29EAH         LINE#         1958
  C:29F1H         LINE#         1959
  C:29F1H         LINE#         1970
  C:29FAH         LINE#         1971
  C:29FAH         LINE#         1972
  C:2A02H         LINE#         1973
  C:2A02H         LINE#         1984
  C:2A0BH         LINE#         1985
  C:2A0BH         LINE#         1987
  C:2A17H         LINE#         1990
  C:2A3DH         LINE#         1991
  C:2A48H         LINE#         2245
  C:2A4BH         LINE#         2248
  C:2A73H         LINE#         2249
  C:2A73H         LINE#         2250
  C:2A7AH         LINE#         2251
  C:2A81H         LINE#         2252
  C:2A8FH         LINE#         2253
  C:2A91H         LINE#         2255
  C:2A91H         LINE#         2256
  C:2A98H         LINE#         2257
  C:2A9FH         LINE#         2258
  C:2AB6H         LINE#         2259
  C:2AB6H         LINE#         2279
  C:2AC9H         LINE#         2280
  C:2ACEH         LINE#         2282
  C:2AD1H         LINE#         2287
  C:2AF0H         LINE#         2288
  C:2AF0H         LINE#         2289
  C:2AF7H         LINE#         2290
  C:2AFEH         LINE#         2291
  C:2AFEH         LINE#         2292
  C:2B0CH         LINE#         2293
  C:2B19H         LINE#         2295
  C:2B19H         LINE#         2296
  C:2B19H         LINE#         2297
  C:2B1BH         LINE#         2299
  C:2B1BH         LINE#         2300
  C:2B22H         LINE#         2301
  C:2B29H         LINE#         2302
  C:2B29H         LINE#         2303
  C:2B31H         LINE#         2304
BL51 BANKED LINKER/LOCATER V6.22            10/13/2015  11:10:35  PAGE 48


  C:2B3EH         LINE#         2306
  C:2B45H         LINE#         2307
  C:2B45H         LINE#         2308
  C:2B45H         LINE#         2309
  C:2B63H         LINE#         2310
  C:2B63H         LINE#         2311
  C:2B6AH         LINE#         2312
  C:2B71H         LINE#         2313
  C:2B71H         LINE#         2314
  C:2B7FH         LINE#         2315
  C:2B8CH         LINE#         2317
  C:2B8CH         LINE#         2318
  C:2B8CH         LINE#         2319
  C:2B8EH         LINE#         2321
  C:2B8EH         LINE#         2322
  C:2B95H         LINE#         2323
  C:2B9CH         LINE#         2324
  C:2B9CH         LINE#         2325
  C:2BA4H         LINE#         2326
  C:2BB1H         LINE#         2328
  C:2BB8H         LINE#         2329
  C:2BB8H         LINE#         2330
  C:2BB8H         LINE#         2331
  C:2BB8H         LINE#         2333
  C:2BBBH         LINE#         2336
  C:2BC9H         LINE#         2338
  C:2BD5H         LINE#         2339
  C:2BD5H         LINE#         2340
  C:2BF2H         LINE#         2341
  C:2BF2H         LINE#         2342
  C:2BF9H         LINE#         2343
  C:2C00H         LINE#         2344
  C:2C0EH         LINE#         2345
  C:2C10H         LINE#         2347
  C:2C10H         LINE#         2348
  C:2C17H         LINE#         2349
  C:2C1EH         LINE#         2350
  C:2C35H         LINE#         2351
  C:2C35H         LINE#         2352
  C:2C57H         LINE#         2353
  C:2C57H         LINE#         2354
  C:2C5EH         LINE#         2355
  C:2C65H         LINE#         2356
  C:2C73H         LINE#         2357
  C:2C75H         LINE#         2359
  C:2C75H         LINE#         2360
  C:2C7CH         LINE#         2361
  C:2C83H         LINE#         2362
  C:2C9BH         LINE#         2363
  C:2C9BH         LINE#         2364
  C:2C9BH         LINE#         2368
  C:2C9BH         LINE#         2369
  C:2C9BH         LINE#         2370
  C:2C9BH         LINE#         2372
  C:2CA0H         LINE#         2373
  C:2CA5H         LINE#         2376
  C:2CABH         LINE#         2379
  C:2CB1H         LINE#         2382
  C:2CB3H         LINE#         2383
  C:2CB9H         LINE#         2384
  C:2CC5H         LINE#         2387
  C:2CCBH         LINE#         2390
  C:2CCEH         LINE#         2393
  C:2CE0H         LINE#         2395
  C:2CE0H         LINE#         2396
BL51 BANKED LINKER/LOCATER V6.22            10/13/2015  11:10:35  PAGE 49


  C:2CE4H         LINE#         2397
  C:2CE6H         LINE#         2399
  C:2CEAH         LINE#         2400
  C:2CEAH         LINE#         2401
  C:2CEDH         LINE#         2402
  C:2CEDH         LINE#         2403
  C:2D05H         LINE#         2404
  C:2D05H         LINE#         2405
  C:2D08H         LINE#         2406
  C:2D08H         LINE#         2407
  C:2D0FH         LINE#         2408
  C:2D0FH         LINE#         2409
  C:2D12H         LINE#         2411
  C:2D22H         LINE#         2412
  C:2D22H         LINE#         2413
  C:2D28H         LINE#         2414
  C:2D32H         LINE#         2415
  C:2D32H         LINE#         2416
  C:2D32H         LINE#         2417
  C:2D32H         LINE#         2418
  C:2D34H         LINE#         2420
  C:2D3EH         LINE#         2421
  C:2D3EH         LINE#         2422
  C:2D4FH         LINE#         2423
  C:2D4FH         LINE#         2424
  C:2D5AH         LINE#         2425
  C:2D61H         LINE#         2426
  C:2D63H         LINE#         2427
  C:2D80H         LINE#         2428
  C:2D82H         LINE#         2430
  C:2D89H         LINE#         2431
  C:2D89H         LINE#         2434
  C:2D8CH         LINE#         2441
  C:2DA4H         LINE#         2444
  C:2DC9H         LINE#         2445
  C:2DF1H         LINE#         2448
  C:2DF7H         LINE#         2449
  C:2DF7H         LINE#         2450
  C:2DF9H         LINE#         2454
  C:2DFFH         LINE#         2455
  C:2E01H         LINE#         2456
  C:2E1DH         LINE#         2457
  C:2E1FH         LINE#         2459
  C:2E29H         LINE#         2460
  C:2E29H         LINE#         2462
  C:2E4FH         LINE#         2463
  C:2E78H         LINE#         2467
  C:2E86H         LINE#         2471
  C:2E91H         LINE#         2472
  C:2E91H         LINE#         2473
  C:2EACH         LINE#         2474
  C:2EACH         LINE#         2475
  C:2EAFH         LINE#         2476
  C:2EAFH         LINE#         2477
  C:2EB5H         LINE#         2478
  C:2EBBH         LINE#         2479
  C:2EBBH         LINE#         2480
  C:2EC3H         LINE#         2481
  C:2EC3H         LINE#         2482
  C:2EC9H         LINE#         2483
  C:2ECFH         LINE#         2484
  C:2ED5H         LINE#         2485
  C:2ED5H         LINE#         2486
  C:2EDDH         LINE#         2487
  C:2EF5H         LINE#         2488
BL51 BANKED LINKER/LOCATER V6.22            10/13/2015  11:10:35  PAGE 50


  C:2EF5H         LINE#         2489
  C:2EF8H         LINE#         2491
  C:2EF8H         LINE#         2492
  C:2F0AH         LINE#         2493
  C:2F1CH         LINE#         2495
  C:2F1FH         LINE#         2496
  C:2F1FH         LINE#         2498
  C:2F42H         LINE#         2499
  C:2F48H         LINE#         2500
  C:2F4AH         LINE#         2501
  C:2F50H         LINE#         2502
  C:2F54H         LINE#         2503
  C:2F54H         LINE#         2504
  C:2F5CH         LINE#         2506
  C:2F63H         LINE#         2507
  C:2F69H         LINE#         2508
  C:2F6BH         LINE#         2510
  C:2F73H         LINE#         2512
  C:2F80H         LINE#         2513
  C:2F80H         LINE#         2514
  C:2F82H         LINE#         2516
  C:2F99H         LINE#         2517
  C:2FBDH         LINE#         2518
  C:2FD0H         LINE#         2521
  C:2FDCH         LINE#         2523
  C:2FF0H         LINE#         2524
  C:2FF0H         LINE#         2525
  C:2FF0H         LINE#         2527
  C:2FF3H         LINE#         2530
  C:3005H         LINE#         2532
  C:3005H         LINE#         2533
  C:3007H         LINE#         2536
  C:300DH         LINE#         2539
  C:3010H         LINE#         2540
  C:3010H         LINE#         2541
  C:3014H         LINE#         2542
  C:3026H         LINE#         2543
  C:3038H         LINE#         2544
  C:304CH         LINE#         2545
  C:304CH         LINE#         2547
  C:305EH         LINE#         2548
  C:3070H         LINE#         2557
  C:3073H         LINE#         2558
  C:3073H         LINE#         2559
  C:3082H         LINE#         2560
  C:3094H         LINE#         2561
  C:3097H         LINE#         2563
  C:30B2H         LINE#         2564
  C:30B2H         LINE#         2567
  C:30B7H         LINE#         2568
  C:30DAH         LINE#         2571
  C:30F0H         LINE#         2572
  C:30FEH         LINE#         2575
  C:3104H         LINE#         2576
  C:3107H         LINE#         2578
  C:310AH         LINE#         2581
  C:3111H         LINE#         2584
  C:3141H         LINE#         2586
  C:3141H         LINE#         2589
  C:314DH         LINE#         2590
  C:3159H         LINE#         2593
  C:316DH         LINE#         2596
  C:316DH         LINE#         2598
  C:316DH         LINE#         2599
  C:316FH         LINE#         2601
BL51 BANKED LINKER/LOCATER V6.22            10/13/2015  11:10:35  PAGE 51


  C:3172H         LINE#         2602
  C:3172H         LINE#         2604
  C:3175H         LINE#         2607
  C:317EH         LINE#         2609
  C:3187H         LINE#         2611
  C:3187H         LINE#         2613
  C:3190H         LINE#         2614
  C:3199H         LINE#         2616
  C:319CH         LINE#         2619
  C:31A2H         LINE#         2620
  C:31A2H         LINE#         2621
  C:31ACH         LINE#         2623
  C:31C0H         LINE#         2624
  C:31C0H         LINE#         2625
  C:31CAH         LINE#         2626
  C:31D4H         LINE#         2627
  C:31D4H         LINE#         2628
  C:31DDH         LINE#         2629
  C:31E5H         LINE#         2630
  C:31EBH         LINE#         2632
  C:31EEH         LINE#         2634
  C:31F0H         LINE#         2635
  C:31F0H         LINE#         2636
  C:31F3H         LINE#         2638
  C:31F6H         LINE#         2639
  C:31F6H         LINE#         2640
  C:31F6H         LINE#         2641
  C:31F6H         LINE#         2642
  C:31F9H         LINE#         2643
  -------         ENDPROC       MAIN
  -------         ENDMOD        MAIN

  -------         MODULE        ADC
  C:0000H         SYMBOL        _ICE_DUMMY_
  D:0080H         PUBLIC        P0
  D:0090H         PUBLIC        P1
  D:00A0H         PUBLIC        P2
  D:00B0H         PUBLIC        P3
  X:1D0EH         PUBLIC        Therm
  D:00C8H         PUBLIC        P4
  D:00D8H         PUBLIC        P5
  D:00E8H         PUBLIC        P6
  D:00F8H         PUBLIC        P7
  D:0084H         PUBLIC        SFRPAGE
  X:1D0FH         PUBLIC        Thermometer
 C1:8FDEH         PUBLIC        FinishConvertADC
  X:1D13H         PUBLIC        ADCBuffer
  D:00BBH         PUBLIC        AMX0SL
  D:00BFH         PUBLIC        ADC0H
 C1:9C7CH         PUBLIC        StartConvertADC
  X:1D23H         PUBLIC        ADCInput
  B:0027H.1       PUBLIC        BusyConverter
  X:1D24H         PUBLIC        AccCounter
  D:00BEH         PUBLIC        ADC0
  B:00E8H.4       PUBLIC        AD0BUSY
 C1:9BEAH         SYMBOL        Com000C
 C1:9BEAH         SYMBOL        L?0013
 C1:9BF9H         SYMBOL        L?0014
  -------         PROC          COM000C
  -------         ENDPROC       COM000C

  -------         PROC BANK=1   STARTCONVERTADC
 C1:9C7CH         LINE#         26
 C1:9C7CH         LINE#         27
 C1:9C7CH         LINE#         28
BL51 BANKED LINKER/LOCATER V6.22            10/13/2015  11:10:35  PAGE 52


 C1:9C7FH         LINE#         29
 C1:9C82H         LINE#         30
 C1:9C88H         LINE#         31
 C1:9C8AH         LINE#         32
 C1:9C8CH         LINE#         33
  -------         ENDPROC       STARTCONVERTADC

  -------         PROC BANK=1   FINISHCONVERTADC
  -------         DO            
  D:0028H         SYMBOL        i
  -------         ENDDO         
 C1:8FDEH         LINE#         35
 C1:8FDEH         LINE#         36
 C1:8FDEH         LINE#         39
 C1:8FE4H         LINE#         40
 C1:8FE4H         LINE#         41
 C1:8FE7H         LINE#         42
 C1:8FECH         LINE#         43
 C1:8FEEH         LINE#         45
 C1:8FF6H         LINE#         46
 C1:8FF6H         LINE#         47
 C1:9009H         LINE#         49
 C1:900CH         LINE#         51
 C1:900CH         LINE#         52
 C1:9038H         LINE#         54
 C1:903DH         LINE#         56
 C1:9046H         LINE#         57
 C1:9046H         LINE#         58
 C1:906EH         LINE#         60
 C1:908BH         LINE#         61
 C1:90B6H         LINE#         63
 C1:90BCH         LINE#         64
 C1:90BEH         LINE#         65
 C1:90BEH         LINE#         66
 C1:90BEH         LINE#         67
 C1:90BEH         LINE#         68
 C1:90BFH         LINE#         69
  -------         ENDPROC       FINISHCONVERTADC
  -------         ENDMOD        ADC

  -------         MODULE        ATFLASH
  C:0000H         SYMBOL        _ICE_DUMMY_
  D:009DH         PUBLIC        SPI0CKR
  D:0080H         PUBLIC        P0
  D:0090H         PUBLIC        P1
  D:00FFH         PUBLIC        WDTCN
  D:00A0H         PUBLIC        P2
  D:00B0H         PUBLIC        P3
  D:00C8H         PUBLIC        P4
  X:1D37H         PUBLIC        RdHeader
 C1:9CAAH         PUBLIC        WaitSPI
  D:00D8H         PUBLIC        P5
  D:00E8H         PUBLIC        P6
 C1:9BADH         PUBLIC        ReadAF
  D:00F8H         PUBLIC        P7
  D:0084H         PUBLIC        SFRPAGE
 C1:93FDH         PUBLIC        WriteAF
  X:1D3BH         PUBLIC        WrHeader
 C1:9C9EH         PUBLIC        WaitReadyAF
  B:00B0H.6       PUBLIC        P3_6
 C1:90C0H         PUBLIC        InitAF
  D:0049H         PUBLIC        BufAF
  D:00F8H         PUBLIC        SPI0CN
  X:1D3FH         PUBLIC        BufTailAF
  D:004BH         PUBLIC        StateIntAF
BL51 BANKED LINKER/LOCATER V6.22            10/13/2015  11:10:35  PAGE 53


  X:1D40H         PUBLIC        BufEndAF
  B:00A8H.2       PUBLIC        EX1
  D:004CH         PUBLIC        HeaderAF
 C1:9C05H         PUBLIC        HoldSPI_AF
  D:009AH         PUBLIC        SPI0CFG
  D:009BH         PUBLIC        SPI0DAT
 C1:9747H         SYMBOL        Com0021
 C1:9747H         SYMBOL        L?0034
 C1:974EH         SYMBOL        L?0035
 C1:9778H         SYMBOL        L?0036
 C1:977BH         SYMBOL        L?0037
 C1:978FH         SYMBOL        L?0038
 C1:978FH         SYMBOL        L?0039
 C1:9799H         SYMBOL        L?0040
 C1:9799H         SYMBOL        L?0041
 C1:97A1H         SYMBOL        L?0042
  -------         PROC          COM0021
  -------         ENDPROC       COM0021

  -------         PROC BANK=1   WAITSPI
 C1:9CAAH         LINE#         25
 C1:9CAAH         LINE#         26
 C1:9CAAH         LINE#         27
 C1:9CB3H         LINE#         28
  -------         ENDPROC       WAITSPI

  -------         PROC BANK=1   HOLDSPI_AF
 C1:9C05H         LINE#         30
 C1:9C05H         LINE#         31
 C1:9C05H         LINE#         32
 C1:9C0DH         LINE#         33
 C1:9C10H         LINE#         34
 C1:9C12H         LINE#         35
 C1:9C14H         LINE#         36
 C1:9C17H         LINE#         37
 C1:9C19H         LINE#         38
 C1:9C1CH         LINE#         39
 C1:9C1FH         LINE#         40
  -------         ENDPROC       HOLDSPI_AF

  -------         PROC BANK=1   WAITREADYAF
 C1:9C9EH         LINE#         42
 C1:9C9EH         LINE#         43
 C1:9C9EH         LINE#         44
 C1:9CA1H         LINE#         46
 C1:9CA4H         LINE#         48
 C1:9CA7H         LINE#         50
  -------         ENDPROC       WAITREADYAF

  -------         PROC BANK=1   WRITEAF
 C1:93FDH         LINE#         53
 C1:93FDH         LINE#         54
 C1:93FDH         LINE#         55
 C1:9400H         LINE#         56
 C1:9408H         LINE#         58
 C1:9414H         LINE#         59
 C1:9414H         LINE#         60
 C1:9414H         LINE#         61
 C1:9417H         LINE#         62
 C1:941DH         LINE#         63
 C1:9420H         LINE#         65
 C1:9420H         LINE#         67
 C1:9435H         LINE#         69
 C1:9442H         LINE#         70
 C1:9445H         LINE#         71
BL51 BANKED LINKER/LOCATER V6.22            10/13/2015  11:10:35  PAGE 54


 C1:944AH         LINE#         72
 C1:944AH         LINE#         73
 C1:944DH         LINE#         75
 C1:9450H         LINE#         76
 C1:9479H         LINE#         78
 C1:947CH         LINE#         79
 C1:947CH         LINE#         80
 C1:947CH         LINE#         82
 C1:947FH         LINE#         83
 C1:9485H         LINE#         84
 C1:9488H         LINE#         86
 C1:948BH         LINE#         87
 C1:948DH         LINE#         88
 C1:948DH         LINE#         89
 C1:9490H         LINE#         91
 C1:9493H         LINE#         93
 C1:949DH         LINE#         95
 C1:949DH         LINE#         96
 C1:94A2H         LINE#         97
 C1:94AEH         LINE#         98
 C1:94B1H         LINE#         99
 C1:94B1H         LINE#         100
  -------         ENDPROC       WRITEAF

  -------         PROC BANK=1   READAF
 C1:9BADH         LINE#         102
 C1:9BADH         LINE#         103
 C1:9BADH         LINE#         104
 C1:9BB0H         LINE#         106
 C1:9BB3H         LINE#         107
 C1:9BBDH         LINE#         109
 C1:9BC3H         LINE#         110
 C1:9BC6H         LINE#         111
 C1:9BC9H         LINE#         113
  -------         ENDPROC       READAF

  -------         PROC BANK=1   INITAF
 C1:90C0H         LINE#         116
 C1:90C0H         LINE#         117
 C1:90C0H         LINE#         118
 C1:90C6H         LINE#         120
 C1:90C6H         LINE#         121
 C1:90C6H         LINE#         122
 C1:90CCH         LINE#         123
 C1:90CFH         LINE#         125
 C1:90D2H         LINE#         127
 C1:90D7H         LINE#         128
 C1:90DDH         LINE#         129
 C1:9101H         LINE#         130
 C1:9116H         LINE#         132
 C1:9121H         LINE#         134
 C1:9121H         LINE#         135
 C1:9126H         LINE#         136
 C1:912EH         LINE#         137
 C1:912EH         LINE#         138
 C1:9134H         LINE#         139
 C1:9136H         LINE#         140
 C1:9136H         LINE#         141
 C1:9143H         LINE#         142
 C1:9143H         LINE#         143
 C1:9146H         LINE#         145
 C1:915AH         LINE#         146
 C1:915DH         LINE#         151
 C1:9167H         LINE#         152
 C1:916AH         LINE#         154
BL51 BANKED LINKER/LOCATER V6.22            10/13/2015  11:10:35  PAGE 55


 C1:9173H         LINE#         155
 C1:9173H         LINE#         156
 C1:9175H         LINE#         157
 C1:9175H         LINE#         158
 C1:9175H         LINE#         159
 C1:9177H         LINE#         161
 C1:9177H         LINE#         163
 C1:9179H         LINE#         164
 C1:9179H         LINE#         165
 C1:917CH         LINE#         167
 C1:917FH         LINE#         168
 C1:9184H         LINE#         169
 C1:918CH         LINE#         170
 C1:9192H         LINE#         171
 C1:9195H         LINE#         172
 C1:9198H         LINE#         174
 C1:919BH         LINE#         175
 C1:919DH         LINE#         176
 C1:919DH         LINE#         177
 C1:91A0H         LINE#         178
 C1:91A0H         LINE#         179
  -------         ENDPROC       INITAF
  -------         ENDMOD        ATFLASH

  -------         MODULE        IO
  C:0000H         SYMBOL        _ICE_DUMMY_
  D:0080H         PUBLIC        P0
  D:0090H         PUBLIC        P1
  X:1B14H         PUBLIC        npack_3B_inc
  D:00FFH         PUBLIC        WDTCN
  D:00A0H         PUBLIC        P2
  X:1B15H         PUBLIC        npack_4B_inc
  D:00B0H         PUBLIC        P3
  X:1B16H         PUBLIC        npack_3D_inc
  D:00C8H         PUBLIC        P4
  D:00D8H         PUBLIC        P5
  X:1B17H         PUBLIC        TypeMesOut
  X:1B18H         PUBLIC        npack_3F_inc
  D:00E8H         PUBLIC        P6
  D:00F8H         PUBLIC        P7
 C2:EB6BH         PUBLIC        ResetState
  D:004EH         PUBLIC        pBuf_read_data
  D:0084H         PUBLIC        SFRPAGE
 C2:DE24H         PUBLIC        _NpackInc
 C2:E223H         PUBLIC        _Test_tel_to_phone
 C2:D26FH         PUBLIC        _tstPhoneNum
  D:0050H         PUBLIC        pBuf
  B:0025H.6       PUBLIC        _flag_have_tail
  X:1B19H         PUBLIC        len_pasw_sms
 C2:B6D5H         PUBLIC        Automat_sms
  B:00C8H.1       PUBLIC        P4_1
  X:1B1AH         PUBLIC        StatePB
 C2:E2D2H         PUBLIC        Automat_io
  B:0025H.7       PUBLIC        _flag_need_do_restart
  B:00B0H.7       PUBLIC        P3_7
  B:0026H.0       PUBLIC        _flag_need_to_loader
 C2:C629H         PUBLIC        Test_read_data
  X:1B1BH         PUBLIC        state_io_wk
  B:0026H.1       PUBLIC        _flag_send_last_pack
 C2:DF32H         PUBLIC        GetState
 C2:DD91H         PUBLIC        _Get_npack_inc
 C2:D38CH         PUBLIC        _do_pack030F
  X:1B1CH         PUBLIC        len_read_data
 C2:D48DH         PUBLIC        Param_default
 C2:E63DH         PUBLIC        _do_pack53
BL51 BANKED LINKER/LOCATER V6.22            10/13/2015  11:10:35  PAGE 56


  X:1B1DH         PUBLIC        Len_buf
 C2:C7FCH         PUBLIC        _Data_decode
 C2:DBA4H         PUBLIC        Fill_buf_auto
 C2:DC4BH         PUBLIC        Test_read_mes
 C2:E46AH         PUBLIC        Fill_buf_old
 C2:A207H         PUBLIC        _Test_read_text
  X:1B1FH         PUBLIC        io_who_send_sms
 C2:EBC4H         PUBLIC        Init_io
 C2:DA44H         PUBLIC        _Hex_to_DecASCII_5
 C2:E4ABH         PUBLIC        break_gsm_req
  D:00EFH         PUBLIC        RSTSRC
  X:1B20H         PUBLIC        count_all_buf
 C2:BAC1H         PUBLIC        _do_txtpack_N
 C2:C02FH         PUBLIC        _do_txtpack_P
  B:0026H.2       PUBLIC        _online
 C2:A863H         PUBLIC        _do_txtpack_S
 C2:C443H         PUBLIC        _do_txtpack_T
 C2:BDDAH         PUBLIC        _do_txtpack_V
  X:1B22H         PUBLIC        npack_31_inc
  X:1B23H         PUBLIC        count_tek_buf
  X:1B24H         PUBLIC        npack_32_inc
  B:0026H.3       PUBLIC        _flag_send_p_last_pack
  X:1B25H         PUBLIC        npack_33_inc
  X:1B26H         PUBLIC        pasw_sms
  X:1B2EH         PUBLIC        npack_43_inc
  X:1B2FH         PUBLIC        npack_34_inc
  X:1B30H         PUBLIC        npack_35_inc
  X:1B31H         PUBLIC        npack_45_inc
  X:1B32H         PUBLIC        npack_36_inc
  X:1B33H         PUBLIC        npack_37_inc
  X:1B34H         PUBLIC        io_buf
  X:1BC1H         PUBLIC        npack_47_inc
  X:1BC2H         PUBLIC        npack_39_inc
  X:1BC3H         PUBLIC        npack_49_inc
 C2:AE80H         SYMBOL        Com0309
 C2:AE80H         SYMBOL        L?0778
 C2:AE80H         SYMBOL        L?0779
 C2:AE86H         SYMBOL        L?0780
 C2:AE89H         SYMBOL        L?0781
 C2:AE94H         SYMBOL        L?0782
 C2:AE97H         SYMBOL        L?0783
 C2:AE9AH         SYMBOL        L?0784
 C2:AEA4H         SYMBOL        L?0785
 C2:AEA4H         SYMBOL        L?0786
 C2:AEA7H         SYMBOL        L?0787
 C2:AEB6H         SYMBOL        L?0788
 C2:AEB9H         SYMBOL        L?0789
 C2:AEBFH         SYMBOL        L?0790
 C2:AEC6H         SYMBOL        L?0791
 C2:AEC6H         SYMBOL        L?0792
 C2:AECEH         SYMBOL        L?0793
 C2:AECFH         SYMBOL        L?0794
 C2:AED0H         SYMBOL        L?0795
 C2:AED3H         SYMBOL        L?0796
 C2:AED4H         SYMBOL        L?0797
 C2:AEDFH         SYMBOL        L?0798
 C2:AEDFH         SYMBOL        L?0799
 C2:AEE7H         SYMBOL        L?0800
 C2:AEF1H         SYMBOL        L?0801
 C2:AEF1H         SYMBOL        L?0802
 C2:AEF4H         SYMBOL        L?0803
 C2:AEFEH         SYMBOL        L?0804
 C2:AEFEH         SYMBOL        L?0805
 C2:AF15H         SYMBOL        L?0808
 C2:AF15H         SYMBOL        L?0809
BL51 BANKED LINKER/LOCATER V6.22            10/13/2015  11:10:35  PAGE 57


 C2:AF21H         SYMBOL        L?0810
 C2:AF2BH         SYMBOL        L?0812
 C2:AF2BH         SYMBOL        L?0813
 C2:AF32H         SYMBOL        L?0814
 C2:AF38H         SYMBOL        L?0815
 C2:AF3FH         SYMBOL        L?0818
 C2:AF44H         SYMBOL        L?0819
 C2:AF49H         SYMBOL        L?0820
 C2:AF50H         SYMBOL        L?0821
 C2:AF50H         SYMBOL        L?0822
 C2:AF53H         SYMBOL        L?0823
 C2:AF5BH         SYMBOL        L?0824
 C2:AF5BH         SYMBOL        L?0825
 C2:AF7BH         SYMBOL        L?0826
 C2:AF7CH         SYMBOL        L?0827
 C2:AF80H         SYMBOL        L?0828
 C2:AF83H         SYMBOL        L?0829
 C2:AF8AH         SYMBOL        L?0832
 C2:AF8AH         SYMBOL        L?0833
 C2:AF96H         SYMBOL        L?0834
 C2:AFA0H         SYMBOL        L?0835
 C2:AFADH         SYMBOL        L?0836
 C2:AFB2H         SYMBOL        L?0837
 C2:AFB4H         SYMBOL        L?0838
 C2:AFBBH         SYMBOL        L?0839
 C2:AFBBH         SYMBOL        L?0840
 C2:AFBDH         SYMBOL        L?0841
 C2:AFC4H         SYMBOL        L?0842
 C2:AFC4H         SYMBOL        L?0843
 C2:AFC8H         SYMBOL        L?0844
 C2:AFD0H         SYMBOL        L?0845
 C2:AFD2H         SYMBOL        L?0846
 C2:AFD8H         SYMBOL        L?0847
 C2:AFDBH         SYMBOL        L?0848
 C2:AFE7H         SYMBOL        L?0851
 C2:AFE7H         SYMBOL        L?0852
 C2:AFEAH         SYMBOL        L?0853
 C2:AFF6H         SYMBOL        L?0854
 C2:AFF6H         SYMBOL        L?0855
 C2:B001H         SYMBOL        L?0856
 C2:B001H         SYMBOL        L?0857
 C2:B00CH         SYMBOL        L?0858
 C2:B00CH         SYMBOL        L?0859
 C2:B017H         SYMBOL        L?0860
 C2:B017H         SYMBOL        L?0861
 C2:B022H         SYMBOL        L?0862
 C2:B022H         SYMBOL        L?0863
 C2:B025H         SYMBOL        L?0864
 C2:B02FH         SYMBOL        L?0865
 C2:B02FH         SYMBOL        L?0866
 C2:B031H         SYMBOL        L?0867
 C2:B038H         SYMBOL        L?0868
 C2:B038H         SYMBOL        L?0869
 C2:B043H         SYMBOL        L?0870
 C2:B043H         SYMBOL        L?0871
 C2:B04EH         SYMBOL        L?0872
 C2:B04EH         SYMBOL        L?0873
 C2:B051H         SYMBOL        L?0874
 C2:B05DH         SYMBOL        L?0875
 C2:B05DH         SYMBOL        L?0876
 C2:B06AH         SYMBOL        L?0877
 C2:B06AH         SYMBOL        L?0878
 C2:B077H         SYMBOL        L?0879
 C2:B09EH         SYMBOL        L?0880
 C2:B09EH         SYMBOL        L?0881
BL51 BANKED LINKER/LOCATER V6.22            10/13/2015  11:10:35  PAGE 58


 C2:B0AAH         SYMBOL        L?0882
 C2:B0AAH         SYMBOL        L?0883
 C2:B0B6H         SYMBOL        L?0884
 C2:B0B6H         SYMBOL        L?0885
 C2:B0B7H         SYMBOL        L?0886
 C2:B0BEH         SYMBOL        L?0887
 C2:B0C0H         SYMBOL        L?0888
 C2:B0C1H         SYMBOL        L?0889
 C2:B0CEH         SYMBOL        L?0890
 C2:B0CEH         SYMBOL        L?0891
 C2:B0D5H         SYMBOL        L?0892
 C2:B0D5H         SYMBOL        L?0893
 C2:B0D7H         SYMBOL        L?0894
 C2:B0DDH         SYMBOL        L?0895
 C2:B0DDH         SYMBOL        L?0896
 C2:B0E8H         SYMBOL        L?0897
 C2:B0E8H         SYMBOL        L?0898
 C2:B0F3H         SYMBOL        L?0901
 C2:B0F7H         SYMBOL        L?0902
 C2:B0FBH         SYMBOL        L?0903
 C2:B102H         SYMBOL        L?0904
 C2:B102H         SYMBOL        L?0905
 C2:B10BH         SYMBOL        L?0906
 C2:B10BH         SYMBOL        L?0907
 C2:B114H         SYMBOL        L?0908
 C2:B114H         SYMBOL        L?0909
 C2:B11DH         SYMBOL        L?0910
 C2:B11DH         SYMBOL        L?0911
 C2:B126H         SYMBOL        L?0912
 C2:B142H         SYMBOL        L?0913
 C2:B142H         SYMBOL        L?0914
 C2:B14CH         SYMBOL        L?0915
 C2:B14CH         SYMBOL        L?0916
 C2:B156H         SYMBOL        L?0919
 C2:B156H         SYMBOL        L?0920
 C2:B15DH         SYMBOL        L?0922
 C2:B15DH         SYMBOL        L?0923
 C2:B166H         SYMBOL        L?0924
 C2:B166H         SYMBOL        L?0925
 C2:B169H         SYMBOL        L?0926
 C2:B170H         SYMBOL        L?0927
 C2:B170H         SYMBOL        L?0928
 C2:B177H         SYMBOL        L?0929
 C2:B177H         SYMBOL        L?0930
 C2:B17EH         SYMBOL        L?0931
 C2:B17EH         SYMBOL        L?0932
 C2:B185H         SYMBOL        L?0933
 C2:B185H         SYMBOL        L?0934
 C2:B18CH         SYMBOL        L?0935
 C2:B18CH         SYMBOL        L?0936
 C2:B193H         SYMBOL        L?0938
 C2:B195H         SYMBOL        L?0939
 C2:B19EH         SYMBOL        L?0940
 C2:B19EH         SYMBOL        L?0941
 C2:B1AAH         SYMBOL        L?0942
 C2:B1AAH         SYMBOL        L?0943
 C2:B1B2H         SYMBOL        L?0944
 C2:B1B2H         SYMBOL        L?0945
 C2:B1BAH         SYMBOL        L?0946
 C2:B1BAH         SYMBOL        L?0947
 C2:B1C1H         SYMBOL        L?0948
 C2:B1CAH         SYMBOL        L?0949
 C2:B1CAH         SYMBOL        L?0950
 C2:B1D1H         SYMBOL        L?0953
 C2:B1D3H         SYMBOL        L?0954
BL51 BANKED LINKER/LOCATER V6.22            10/13/2015  11:10:35  PAGE 59


 C2:B1DAH         SYMBOL        L?0955
 C2:B1DAH         SYMBOL        L?0956
 C2:B1E2H         SYMBOL        L?0957
 C2:B1E2H         SYMBOL        L?0958
 C2:B1E9H         SYMBOL        L?0959
 C2:B1F7H         SYMBOL        L?0960
 C2:B205H         SYMBOL        L?0961
 C2:B213H         SYMBOL        L?0962
 C2:B213H         SYMBOL        L?0963
 C2:B21CH         SYMBOL        L?0964
 C2:B229H         SYMBOL        L?0965
 C2:B229H         SYMBOL        L?0966
 C2:B230H         SYMBOL        L?0967
 C2:B23DH         SYMBOL        L?0969
 C2:B249H         SYMBOL        L?0970
 C2:B255H         SYMBOL        L?0971
 C2:B261H         SYMBOL        L?0972
 C2:B26CH         SYMBOL        L?0974
 C2:B276H         SYMBOL        L?0975
 C2:B280H         SYMBOL        L?0976
 C2:B280H         SYMBOL        L?0977
 C2:B287H         SYMBOL        L?0978
 C2:B287H         SYMBOL        L?0979
 C2:B28EH         SYMBOL        L?0980
 C2:B28EH         SYMBOL        L?0981
 C2:B295H         SYMBOL        L?0982
 C2:B295H         SYMBOL        L?0983
 C2:B29CH         SYMBOL        L?0984
 C2:B29CH         SYMBOL        L?0985
 C2:B2A3H         SYMBOL        L?0986
 C2:B2A3H         SYMBOL        L?0987
 C2:B2AAH         SYMBOL        L?0988
 C2:B2AAH         SYMBOL        L?0989
 C2:B2B1H         SYMBOL        L?0990
 C2:B2BBH         SYMBOL        L?0991
  -------         PROC          COM0309
  -------         ENDPROC       COM0309

  -------         PROC BANK=2   INIT_IO
 C2:EBC4H         LINE#         93
 C2:EBC4H         LINE#         94
 C2:EBC4H         LINE#         95
 C2:EBC7H         LINE#         96
 C2:EBCDH         LINE#         97
 C2:EBD4H         LINE#         98
  -------         ENDPROC       INIT_IO

  -------         PROC BANK=2   FILL_BUF_OLD
 C2:E46AH         LINE#         100
 C2:E46AH         LINE#         101
 C2:E46AH         LINE#         102
 C2:E471H         LINE#         103
 C2:E476H         LINE#         105
 C2:E47DH         LINE#         106
 C2:E47DH         LINE#         107
 C2:E485H         LINE#         109
 C2:E48CH         LINE#         110
 C2:E48CH         LINE#         112
 C2:E48CH         LINE#         113
 C2:E48CH         LINE#         114
 C2:E49DH         LINE#         116
 C2:E4AAH         LINE#         117
 C2:E4AAH         LINE#         118
  -------         ENDPROC       FILL_BUF_OLD

BL51 BANKED LINKER/LOCATER V6.22            10/13/2015  11:10:35  PAGE 60


  -------         PROC BANK=2   _GET_NPACK_INC
  D:0007H         SYMBOL        type
 C2:DD91H         LINE#         120
 C2:DD91H         LINE#         121
 C2:DD91H         LINE#         122
 C2:DD9AH         LINE#         123
 C2:DDA3H         LINE#         124
 C2:DDACH         LINE#         125
 C2:DDB5H         LINE#         126
 C2:DDBEH         LINE#         127
 C2:DDC7H         LINE#         128
 C2:DDD0H         LINE#         129
 C2:DDD9H         LINE#         130
 C2:DDE2H         LINE#         131
 C2:DDEBH         LINE#         132
 C2:DDF4H         LINE#         133
 C2:DDFDH         LINE#         134
 C2:DE06H         LINE#         135
 C2:DE0FH         LINE#         136
 C2:DE18H         LINE#         137
 C2:DE21H         LINE#         138
 C2:DE23H         LINE#         139
  -------         ENDPROC       _GET_NPACK_INC

  -------         PROC BANK=2   FILL_BUF_AUTO
  -------         DO            
  X:1BC7H         SYMBOL        npack_inc
  -------         ENDDO         
 C2:DBA4H         LINE#         141
 C2:DBA4H         LINE#         142
 C2:DBA4H         LINE#         143
 C2:DBB1H         LINE#         145
 C2:DBBCH         LINE#         147
 C2:DBC3H         LINE#         150
 C2:DBCDH         LINE#         151
 C2:DBD5H         LINE#         152
 C2:DBD8H         LINE#         154
 C2:DBDAH         LINE#         155
 C2:DBE1H         LINE#         162
 C2:DBE9H         LINE#         163
 C2:DBE9H         LINE#         164
 C2:DBF0H         LINE#         165
 C2:DBF7H         LINE#         166
 C2:DBF7H         LINE#         167
 C2:DBFDH         LINE#         168
 C2:DC04H         LINE#         169
 C2:DC06H         LINE#         170
 C2:DC0DH         LINE#         171
 C2:DC0DH         LINE#         176
 C2:DC1FH         LINE#         179
 C2:DC1FH         LINE#         180
 C2:DC26H         LINE#         181
 C2:DC26H         LINE#         183
 C2:DC2CH         LINE#         185
 C2:DC2CH         LINE#         186
 C2:DC2CH         LINE#         187
 C2:DC3DH         LINE#         189
 C2:DC4AH         LINE#         190
 C2:DC4AH         LINE#         191
  -------         ENDPROC       FILL_BUF_AUTO

  -------         PROC BANK=2   GETSTATE
  -------         DO            
  X:1BC7H         SYMBOL        i
  -------         ENDDO         
BL51 BANKED LINKER/LOCATER V6.22            10/13/2015  11:10:35  PAGE 61


 C2:DF32H         LINE#         193
 C2:DF32H         LINE#         194
 C2:DF32H         LINE#         196
 C2:DF45H         LINE#         199
 C2:DF48H         LINE#         200
 C2:DF50H         LINE#         202
 C2:DF56H         LINE#         206
 C2:DF60H         LINE#         210
 C2:DF6AH         LINE#         215
 C2:DF79H         LINE#         216
 C2:DF7DH         LINE#         218
 C2:DF7FH         LINE#         220
 C2:DF87H         LINE#         221
 C2:DF87H         LINE#         222
 C2:DF89H         LINE#         223
 C2:DF8BH         LINE#         224
 C2:DF8BH         LINE#         229
 C2:DF9FH         LINE#         231
 C2:DF9FH         LINE#         232
 C2:DFA1H         LINE#         233
 C2:DFA3H         LINE#         234
 C2:DFA4H         LINE#         235
 C2:DFA6H         LINE#         236
  -------         ENDPROC       GETSTATE

  -------         PROC BANK=2   RESETSTATE
 C2:EB6BH         LINE#         238
 C2:EB6BH         LINE#         239
 C2:EB6BH         LINE#         242
 C2:EB75H         LINE#         243
 C2:EB7BH         LINE#         244
 C2:EB81H         LINE#         245
  -------         ENDPROC       RESETSTATE

  -------         PROC BANK=2   _TEST_TEL_TO_PHONE
  D:0004H         SYMBOL        pBufIO
  -------         DO            
  X:1BC6H         SYMBOL        i
  X:1BC7H         SYMBOL        n
  -------         ENDDO         
 C2:E223H         LINE#         280
 C2:E227H         LINE#         281
 C2:E227H         LINE#         283
 C2:E22CH         LINE#         285
 C2:E237H         LINE#         287
 C2:E26EH         LINE#         289
 C2:E279H         LINE#         291
 C2:E27AH         LINE#         292
  -------         ENDPROC       _TEST_TEL_TO_PHONE

  -------         PROC BANK=2   _DATA_DECODE
  D:002AH         SYMBOL        src
  D:002CH         SYMBOL        dest
  D:002EH         SYMBOL        cnt
  -------         DO            
  X:1C5FH         SYMBOL        ofs
  X:1C60H         SYMBOL        mask
  X:1C61H         SYMBOL        flag
  X:1C62H         SYMBOL        index
  X:1C64H         SYMBOL        count
  X:1C66H         SYMBOL        datalen
  X:1C68H         SYMBOL        ch
  X:1C69H         SYMBOL        TempSrc
  -------         ENDDO         
 C2:C7FCH         LINE#         295
BL51 BANKED LINKER/LOCATER V6.22            10/13/2015  11:10:35  PAGE 62


 C2:C808H         LINE#         296
 C2:C808H         LINE#         297
 C2:C80DH         LINE#         298
 C2:C811H         LINE#         301
 C2:C81AH         LINE#         302
 C2:C82AH         LINE#         303
 C2:C82AH         LINE#         304
 C2:C831H         LINE#         305
 C2:C846H         LINE#         306
 C2:C859H         LINE#         307
 C2:C861H         LINE#         308
 C2:C86BH         LINE#         309
 C2:C871H         LINE#         310
 C2:C873H         LINE#         312
 C2:C873H         LINE#         313
 C2:C878H         LINE#         314
 C2:C878H         LINE#         315
 C2:C88FH         LINE#         316
 C2:C8A6H         LINE#         318
 C2:C8B8H         LINE#         319
 C2:C8B8H         LINE#         320
 C2:C8BEH         LINE#         321
 C2:C8BEH         LINE#         322
 C2:C8CFH         LINE#         323
 C2:C8F2H         LINE#         324
 C2:C933H         LINE#         325
 C2:C945H         LINE#         326
 C2:C94DH         LINE#         327
 C2:C96FH         LINE#         328
 C2:C96FH         LINE#         329
 C2:C985H         LINE#         330
 C2:C997H         LINE#         331
 C2:C99AH         LINE#         332
 C2:C9A2H         LINE#         333
  -------         ENDPROC       _DATA_DECODE

  -------         PROC BANK=2   _TSTPHONENUM
  D:0007H         SYMBOL        i
  D:002EH         SYMBOL        cnt
  -------         DO            
  X:1C66H         SYMBOL        l
  X:1C67H         SYMBOL        j
  -------         ENDDO         
 C2:D26FH         LINE#         335
 C2:D271H         LINE#         336
 C2:D271H         LINE#         337
 C2:D276H         LINE#         340
 C2:D276H         LINE#         341
 C2:D276H         LINE#         342
 C2:D28AH         LINE#         343
 C2:D29CH         LINE#         344
 C2:D2A2H         LINE#         345
 C2:D2A3H         LINE#         346
 C2:D2A3H         LINE#         347
 C2:D2ABH         LINE#         349
 C2:D2ADH         LINE#         350
 C2:D2ADH         LINE#         351
 C2:D2B4H         LINE#         352
 C2:D2B6H         LINE#         354
 C2:D2EDH         LINE#         355
 C2:D2F3H         LINE#         356
 C2:D2F6H         LINE#         358
 C2:D2F6H         LINE#         362
 C2:D320H         LINE#         366
 C2:D32AH         LINE#         367
BL51 BANKED LINKER/LOCATER V6.22            10/13/2015  11:10:35  PAGE 63


 C2:D330H         LINE#         368
 C2:D330H         LINE#         369
 C2:D33CH         LINE#         370
 C2:D34FH         LINE#         371
 C2:D37CH         LINE#         372
 C2:D383H         LINE#         373
 C2:D38AH         LINE#         374
 C2:D38AH         LINE#         375
 C2:D38AH         LINE#         376
 C2:D38BH         LINE#         377
  -------         ENDPROC       _TSTPHONENUM

  -------         PROC BANK=2   PARAM_DEFAULT
  B:0026H.6       SYMBOL        bPr2
  -------         DO            
  X:1C66H         SYMBOL        CheckSum
  D:002EH         SYMBOL        pCheckSum
  X:1C68H         SYMBOL        cnt
  -------         ENDDO         
 C2:D48DH         LINE#         379
 C2:D48DH         LINE#         380
 C2:D48DH         LINE#         382
 C2:D493H         LINE#         385
 C2:D49FH         LINE#         391
 C2:D4A9H         LINE#         392
 C2:D4EBH         LINE#         399
 C2:D4F6H         LINE#         406
 C2:D4FDH         LINE#         408
 C2:D504H         LINE#         410
 C2:D50AH         LINE#         411
 C2:D50DH         LINE#         412
 C2:D50FH         LINE#         413
 C2:D512H         LINE#         415
 C2:D518H         LINE#         417
 C2:D51AH         LINE#         419
 C2:D51EH         LINE#         421
 C2:D520H         LINE#         423
 C2:D523H         LINE#         424
 C2:D527H         LINE#         428
 C2:D533H         LINE#         432
 C2:D536H         LINE#         452
 C2:D539H         LINE#         453
 C2:D539H         LINE#         455
 C2:D56CH         LINE#         456
 C2:D579H         LINE#         457
 C2:D57FH         LINE#         458
 C2:D57FH         LINE#         459
  -------         ENDPROC       PARAM_DEFAULT
 C2:A7C1H         SYMBOL        L?0811
 C2:A7ECH         SYMBOL        L?0817
 C2:A7FFH         SYMBOL        L?0830
 C2:A812H         SYMBOL        L?0849
 C2:A825H         SYMBOL        L?0900
 C2:A82CH         SYMBOL        L?0917
 C2:A83FH         SYMBOL        L?0921
 C2:A846H         SYMBOL        L?0951
 C2:A84DH         SYMBOL        L?0952
 C2:A85CH         SYMBOL        L?0968

  -------         PROC BANK=2   _TEST_READ_TEXT
  D:002AH         SYMBOL        pBuf_read_data
  -------         DO            
  X:1C5FH         SYMBOL        i
  X:1C60H         SYMBOL        j
  X:1C61H         SYMBOL        l
BL51 BANKED LINKER/LOCATER V6.22            10/13/2015  11:10:35  PAGE 64


  X:1C62H         SYMBOL        cnt
  X:1C64H         SYMBOL        CheckSum
  D:002CH         SYMBOL        pCheckSum
  -------         ENDDO         
 C2:A207H         LINE#         483
 C2:A20BH         LINE#         484
 C2:A20BH         LINE#         488
 C2:A211H         LINE#         491
 C2:A224H         LINE#         492
 C2:A245H         LINE#         493
 C2:A24BH         LINE#         495
 C2:A258H         LINE#         496
 C2:A258H         LINE#         497
 C2:A264H         LINE#         498
 C2:A270H         LINE#         499
 C2:A273H         LINE#         500
 C2:A278H         LINE#         505
 C2:A287H         LINE#         506
 C2:A287H         LINE#         507
 C2:A28EH         LINE#         508
 C2:A291H         LINE#         509
 C2:A291H         LINE#         510
 C2:A29CH         LINE#         511
 C2:A2A3H         LINE#         512
 C2:A2A8H         LINE#         514
 C2:A2AEH         LINE#         515
 C2:A2B9H         LINE#         516
 C2:A2D2H         LINE#         519
 C2:A2E4H         LINE#         521
 C2:A2E4H         LINE#         523
 C2:A2E4H         LINE#         525
 C2:A2E4H         LINE#         526
 C2:A2E9H         LINE#         527
 C2:A2ECH         LINE#         528
 C2:A2ECH         LINE#         533
 C2:A2FBH         LINE#         534
 C2:A2FBH         LINE#         535
 C2:A30BH         LINE#         537
 C2:A311H         LINE#         539
 C2:A31AH         LINE#         541
 C2:A31CH         LINE#         543
 C2:A325H         LINE#         545
 C2:A325H         LINE#         546
 C2:A327H         LINE#         547
 C2:A32CH         LINE#         548
 C2:A32CH         LINE#         549
 C2:A33CH         LINE#         551
 C2:A33EH         LINE#         552
 C2:A340H         LINE#         553
 C2:A340H         LINE#         558
 C2:A34FH         LINE#         559
 C2:A34FH         LINE#         560
 C2:A34FH         LINE#         561
 C2:A354H         LINE#         562
 C2:A357H         LINE#         563
 C2:A357H         LINE#         570
 C2:A369H         LINE#         571
 C2:A369H         LINE#         572
 C2:A370H         LINE#         574
 C2:A373H         LINE#         575
 C2:A37AH         LINE#         576
 C2:A37AH         LINE#         577
 C2:A37AH         LINE#         578
 C2:A387H         LINE#         579
 C2:A38FH         LINE#         580
BL51 BANKED LINKER/LOCATER V6.22            10/13/2015  11:10:35  PAGE 65


 C2:A39AH         LINE#         581
 C2:A3A2H         LINE#         582
 C2:A3A2H         LINE#         583
 C2:A3A5H         LINE#         584
 C2:A3ACH         LINE#         585
 C2:A3ACH         LINE#         586
 C2:A3ACH         LINE#         587
 C2:A3B9H         LINE#         588
 C2:A3C1H         LINE#         589
 C2:A3CCH         LINE#         590
 C2:A3D4H         LINE#         591
 C2:A3D4H         LINE#         592
 C2:A3D7H         LINE#         593
 C2:A3DEH         LINE#         594
 C2:A3DEH         LINE#         595
 C2:A3DEH         LINE#         596
 C2:A3EBH         LINE#         597
 C2:A3F3H         LINE#         598
 C2:A3FEH         LINE#         599
 C2:A406H         LINE#         600
 C2:A406H         LINE#         602
 C2:A409H         LINE#         603
 C2:A40CH         LINE#         604
 C2:A40CH         LINE#         605
 C2:A40CH         LINE#         606
 C2:A41AH         LINE#         607
 C2:A423H         LINE#         608
 C2:A423H         LINE#         609
 C2:A429H         LINE#         610
 C2:A429H         LINE#         611
 C2:A42CH         LINE#         612
 C2:A42CH         LINE#         613
 C2:A42CH         LINE#         614
 C2:A43AH         LINE#         615
 C2:A443H         LINE#         616
 C2:A443H         LINE#         617
 C2:A449H         LINE#         618
 C2:A449H         LINE#         619
 C2:A44CH         LINE#         620
 C2:A44CH         LINE#         621
 C2:A44CH         LINE#         622
 C2:A45AH         LINE#         623
 C2:A463H         LINE#         624
 C2:A463H         LINE#         625
 C2:A469H         LINE#         626
 C2:A469H         LINE#         627
 C2:A46CH         LINE#         628
 C2:A46CH         LINE#         629
 C2:A46CH         LINE#         630
 C2:A47AH         LINE#         631
 C2:A483H         LINE#         632
 C2:A483H         LINE#         633
 C2:A48BH         LINE#         634
 C2:A48EH         LINE#         635
 C2:A4C4H         LINE#         639
 C2:A4C4H         LINE#         640
 C2:A4C9H         LINE#         641
 C2:A4C9H         LINE#         642
 C2:A4C9H         LINE#         643
 C2:A4D7H         LINE#         644
 C2:A4E0H         LINE#         645
 C2:A4E0H         LINE#         646
 C2:A4E0H         LINE#         647
 C2:A4E9H         LINE#         650
 C2:A4FBH         LINE#         651
BL51 BANKED LINKER/LOCATER V6.22            10/13/2015  11:10:35  PAGE 66


 C2:A4FBH         LINE#         653
 C2:A504H         LINE#         655
 C2:A50AH         LINE#         657
 C2:A50AH         LINE#         658
 C2:A50FH         LINE#         659
 C2:A512H         LINE#         660
 C2:A512H         LINE#         666
 C2:A521H         LINE#         667
 C2:A521H         LINE#         668
 C2:A521H         LINE#         670
 C2:A526H         LINE#         671
 C2:A52DH         LINE#         672
 C2:A52DH         LINE#         673
 C2:A52DH         LINE#         674
 C2:A53AH         LINE#         675
 C2:A542H         LINE#         676
 C2:A54BH         LINE#         677
 C2:A54BH         LINE#         678
 C2:A55CH         LINE#         679
 C2:A569H         LINE#         680
 C2:A575H         LINE#         682
 C2:A587H         LINE#         683
 C2:A587H         LINE#         685
 C2:A587H         LINE#         689
 C2:A587H         LINE#         690
 C2:A58CH         LINE#         691
 C2:A58FH         LINE#         692
 C2:A58FH         LINE#         697
 C2:A5A1H         LINE#         698
 C2:A5A1H         LINE#         699
 C2:A5A1H         LINE#         701
 C2:A5A6H         LINE#         702
 C2:A5A9H         LINE#         703
 C2:A5A9H         LINE#         704
 C2:A5A9H         LINE#         705
 C2:A5B7H         LINE#         706
 C2:A5C0H         LINE#         707
 C2:A5C0H         LINE#         708
 C2:A5C6H         LINE#         709
 C2:A5C6H         LINE#         710
 C2:A5C9H         LINE#         711
 C2:A5C9H         LINE#         712
 C2:A5C9H         LINE#         713
 C2:A5D7H         LINE#         714
 C2:A5E0H         LINE#         715
 C2:A5E0H         LINE#         716
 C2:A5E6H         LINE#         717
 C2:A5E6H         LINE#         718
 C2:A5E9H         LINE#         719
 C2:A5E9H         LINE#         720
 C2:A5E9H         LINE#         721
 C2:A5F7H         LINE#         722
 C2:A600H         LINE#         723
 C2:A600H         LINE#         724
 C2:A606H         LINE#         725
 C2:A606H         LINE#         726
 C2:A609H         LINE#         727
 C2:A609H         LINE#         728
 C2:A609H         LINE#         729
 C2:A61DH         LINE#         731
 C2:A62DH         LINE#         733
 C2:A636H         LINE#         734
 C2:A636H         LINE#         735
 C2:A648H         LINE#         738
 C2:A65AH         LINE#         739
BL51 BANKED LINKER/LOCATER V6.22            10/13/2015  11:10:35  PAGE 67


 C2:A65AH         LINE#         740
 C2:A663H         LINE#         742
 C2:A663H         LINE#         743
 C2:A668H         LINE#         744
 C2:A66BH         LINE#         745
 C2:A66BH         LINE#         752
 C2:A67AH         LINE#         753
 C2:A67AH         LINE#         754
 C2:A681H         LINE#         755
 C2:A68DH         LINE#         757
 C2:A690H         LINE#         758
 C2:A696H         LINE#         759
 C2:A69EH         LINE#         760
 C2:A6A1H         LINE#         762
 C2:A6A8H         LINE#         764
 C2:A6B1H         LINE#         765
 C2:A6B1H         LINE#         766
 C2:A6B1H         LINE#         767
 C2:A6BCH         LINE#         768
 C2:A6BCH         LINE#         769
 C2:A6BCH         LINE#         770
 C2:A6C7H         LINE#         771
 C2:A6C7H         LINE#         772
 C2:A6C7H         LINE#         773
 C2:A6D2H         LINE#         774
 C2:A6D2H         LINE#         775
 C2:A6D2H         LINE#         776
 C2:A6DBH         LINE#         777
 C2:A6DBH         LINE#         779
 C2:A6E0H         LINE#         780
 C2:A6E3H         LINE#         781
 C2:A6E3H         LINE#         786
 C2:A6F2H         LINE#         787
 C2:A6F2H         LINE#         788
 C2:A6F7H         LINE#         789
 C2:A6FAH         LINE#         790
 C2:A6FAH         LINE#         795
 C2:A70CH         LINE#         796
 C2:A70CH         LINE#         797
 C2:A711H         LINE#         798
 C2:A714H         LINE#         799
 C2:A714H         LINE#         804
 C2:A729H         LINE#         805
 C2:A729H         LINE#         806
 C2:A730H         LINE#         808
 C2:A73DH         LINE#         809
 C2:A73DH         LINE#         810
 C2:A754H         LINE#         811
 C2:A754H         LINE#         812
 C2:A75FH         LINE#         813
 C2:A75FH         LINE#         814
 C2:A77EH         LINE#         815
 C2:A77EH         LINE#         816
 C2:A780H         LINE#         818
 C2:A784H         LINE#         819
 C2:A784H         LINE#         820
 C2:A7A4H         LINE#         821
 C2:A7ABH         LINE#         822
 C2:A7ADH         LINE#         824
 C2:A7AFH         LINE#         825
 C2:A7B5H         LINE#         827
 C2:A7BBH         LINE#         828
 C2:A7BFH         LINE#         829
 C2:A7BFH         LINE#         831
 C2:A7C0H         LINE#         832
BL51 BANKED LINKER/LOCATER V6.22            10/13/2015  11:10:35  PAGE 68


  -------         ENDPROC       _TEST_READ_TEXT

  -------         PROC BANK=2   TEST_READ_DATA
  -------         DO            
  X:1BC8H         SYMBOL        Temp_Buf
  X:1C58H         SYMBOL        i
  X:1C59H         SYMBOL        j
  X:1C5AH         SYMBOL        l
  X:1C5BH         SYMBOL        cnt
  X:1C5DH         SYMBOL        CheckSum
  D:0028H         SYMBOL        pCheckSum
  -------         ENDDO         
 C2:C629H         LINE#         835
 C2:C629H         LINE#         836
 C2:C629H         LINE#         841
 C2:C62FH         LINE#         843
 C2:C632H         LINE#         844
 C2:C632H         LINE#         845
 C2:C641H         LINE#         847
 C2:C64DH         LINE#         848
 C2:C64DH         LINE#         849
 C2:C64DH         LINE#         850
 C2:C64DH         LINE#         851
 C2:C64FH         LINE#         852
 C2:C64FH         LINE#         853
 C2:C651H         LINE#         854
 C2:C651H         LINE#         856
 C2:C65EH         LINE#         857
 C2:C65EH         LINE#         858
 C2:C688H         LINE#         859
 C2:C68DH         LINE#         861
 C2:C69BH         LINE#         862
 C2:C69EH         LINE#         863
 C2:C6A5H         LINE#         864
 C2:C6A5H         LINE#         866
 C2:C6E6H         LINE#         867
 C2:C6E6H         LINE#         869
 C2:C6E6H         LINE#         870
 C2:C6F6H         LINE#         871
 C2:C6F8H         LINE#         873
 C2:C6F8H         LINE#         874
 C2:C6F8H         LINE#         875
 C2:C6FAH         LINE#         877
 C2:C6FAH         LINE#         878
 C2:C700H         LINE#         879
 C2:C703H         LINE#         880
 C2:C703H         LINE#         881
 C2:C72AH         LINE#         882
 C2:C72AH         LINE#         883
 C2:C731H         LINE#         884
 C2:C739H         LINE#         886
 C2:C73FH         LINE#         887
 C2:C74BH         LINE#         888
 C2:C77BH         LINE#         890
 C2:C7B0H         LINE#         891
 C2:C7BDH         LINE#         892
 C2:C7C6H         LINE#         894
 C2:C7CCH         LINE#         895
 C2:C7D0H         LINE#         896
 C2:C7D2H         LINE#         897
 C2:C7D2H         LINE#         899
 C2:C7D2H         LINE#         900
 C2:C7D2H         LINE#         901
 C2:C7D2H         LINE#         902
 C2:C7D2H         LINE#         903
BL51 BANKED LINKER/LOCATER V6.22            10/13/2015  11:10:35  PAGE 69


 C2:C7E2H         LINE#         904
 C2:C7E4H         LINE#         905
 C2:C7E4H         LINE#         907
 C2:C7E4H         LINE#         908
 C2:C7EDH         LINE#         909
 C2:C7EFH         LINE#         912
 C2:C7EFH         LINE#         913
 C2:C7F8H         LINE#         914
 C2:C7FAH         LINE#         915
 C2:C7FAH         LINE#         917
 C2:C7FAH         LINE#         918
 C2:C7FBH         LINE#         919
 C2:C7FBH         LINE#         920
 C2:C7FBH         LINE#         921
  -------         ENDPROC       TEST_READ_DATA

  -------         PROC BANK=2   TEST_READ_MES
  -------         DO            
  X:1BC7H         SYMBOL        i
  -------         ENDDO         
 C2:DC4BH         LINE#         925
 C2:DC4BH         LINE#         926
 C2:DC4BH         LINE#         930
 C2:DC53H         LINE#         931
 C2:DC53H         LINE#         934
 C2:DC59H         LINE#         935
 C2:DC5FH         LINE#         936
 C2:DC5FH         LINE#         938
 C2:DC67H         LINE#         939
 C2:DC6AH         LINE#         942
 C2:DC72H         LINE#         943
 C2:DC72H         LINE#         944
 C2:DC78H         LINE#         945
 C2:DC81H         LINE#         946
 C2:DC81H         LINE#         947
 C2:DC89H         LINE#         952
 C2:DC8EH         LINE#         953
 C2:DC8EH         LINE#         955
 C2:DC97H         LINE#         956
 C2:DC97H         LINE#         957
 C2:DC9FH         LINE#         958
 C2:DCADH         LINE#         967
 C2:DCE0H         LINE#         968
 C2:DCE9H         LINE#         970
 C2:DCE9H         LINE#         972
 C2:DCEEH         LINE#         973
 C2:DCEEH         LINE#         988
  -------         ENDPROC       TEST_READ_MES

  -------         PROC BANK=2   _NPACKINC
  D:0007H         SYMBOL        type
 C2:DE24H         LINE#         990
 C2:DE24H         LINE#         991
 C2:DE24H         LINE#         993
 C2:DE2CH         LINE#         994
 C2:DE34H         LINE#         995
 C2:DE3CH         LINE#         996
 C2:DE44H         LINE#         997
 C2:DE4CH         LINE#         998
 C2:DE54H         LINE#         999
 C2:DE5CH         LINE#         1000
 C2:DE64H         LINE#         1001
 C2:DE6CH         LINE#         1002
 C2:DE74H         LINE#         1003
 C2:DE7CH         LINE#         1004
BL51 BANKED LINKER/LOCATER V6.22            10/13/2015  11:10:35  PAGE 70


 C2:DE84H         LINE#         1005
 C2:DE8CH         LINE#         1006
 C2:DE94H         LINE#         1007
 C2:DE9CH         LINE#         1008
 C2:DEA6H         LINE#         1009
 C2:DEABH         LINE#         1010
  -------         ENDPROC       _NPACKINC

  -------         PROC BANK=2   AUTOMAT_IO
 C2:E2D2H         LINE#         1017
 C2:E2D2H         LINE#         1018
 C2:E2D2H         LINE#         1021
 C2:E2DBH         LINE#         1022
 C2:E2DBH         LINE#         1023
 C2:E2DBH         LINE#         1024
 C2:E2DBH         LINE#         1026
 C2:E2DBH         LINE#         1027
 C2:E2E2H         LINE#         1028
 C2:E2E9H         LINE#         1029
 C2:E2EFH         LINE#         1031
 C2:E2F2H         LINE#         1033
 C2:E2F7H         LINE#         1034
 C2:E2F9H         LINE#         1036
 C2:E2F9H         LINE#         1037
 C2:E308H         LINE#         1038
 C2:E30BH         LINE#         1039
 C2:E30BH         LINE#         1040
 C2:E30BH         LINE#         1043
 C2:E313H         LINE#         1045
 C2:E31AH         LINE#         1046
 C2:E31AH         LINE#         1047
 C2:E320H         LINE#         1048
 C2:E326H         LINE#         1049
 C2:E326H         LINE#         1050
  -------         ENDPROC       AUTOMAT_IO
 C2:BAB6H         SYMBOL        L?0973

  -------         PROC BANK=2   AUTOMAT_SMS
  -------         DO            
  X:1BC4H         SYMBOL        i
  X:1BC5H         SYMBOL        j
  -------         ENDDO         
 C2:B6D5H         LINE#         1053
 C2:B6D5H         LINE#         1054
 C2:B6D5H         LINE#         1061
 C2:B6DEH         LINE#         1062
 C2:B6DEH         LINE#         1063
 C2:B6ECH         LINE#         1064
 C2:B6ECH         LINE#         1065
 C2:B6EFH         LINE#         1066
 C2:B6F4H         LINE#         1067
 C2:B6F6H         LINE#         1069
 C2:B6FEH         LINE#         1070
 C2:B6FEH         LINE#         1071
 C2:B701H         LINE#         1072
 C2:B706H         LINE#         1080
 C2:B71AH         LINE#         1083
 C2:B71AH         LINE#         1084
 C2:B720H         LINE#         1085
 C2:B72AH         LINE#         1086
 C2:B72FH         LINE#         1087
 C2:B72FH         LINE#         1089
 C2:B755H         LINE#         1090
 C2:B755H         LINE#         1091
 C2:B755H         LINE#         1092
BL51 BANKED LINKER/LOCATER V6.22            10/13/2015  11:10:35  PAGE 71


 C2:B755H         LINE#         1093
 C2:B75BH         LINE#         1094
 C2:B75CH         LINE#         1096
 C2:B75CH         LINE#         1097
 C2:B762H         LINE#         1098
 C2:B762H         LINE#         1099
 C2:B762H         LINE#         1100
 C2:B762H         LINE#         1101
 C2:B765H         LINE#         1114
 C2:B765H         LINE#         1116
 C2:B770H         LINE#         1118
 C2:B779H         LINE#         1123
 C2:B790H         LINE#         1124
 C2:B790H         LINE#         1126
 C2:B79AH         LINE#         1127
 C2:B7A0H         LINE#         1129
 C2:B7A5H         LINE#         1130
 C2:B7AAH         LINE#         1131
 C2:B7AAH         LINE#         1140
 C2:B7AAH         LINE#         1209
 C2:B7AAH         LINE#         1210
 C2:B7ADH         LINE#         1214
 C2:B7BAH         LINE#         1225
 C2:B7C8H         LINE#         1226
 C2:B7CBH         LINE#         1227
 C2:B7CBH         LINE#         1228
 C2:B7D1H         LINE#         1230
 C2:B7D3H         LINE#         1231
 C2:B7D9H         LINE#         1232
 C2:B7DBH         LINE#         1234
 C2:B7E3H         LINE#         1235
 C2:B7E3H         LINE#         1236
 C2:B7E9H         LINE#         1237
 C2:B7EBH         LINE#         1238
 C2:B7F1H         LINE#         1239
 C2:B7F3H         LINE#         1241
 C2:B7F8H         LINE#         1242
 C2:B7F8H         LINE#         1243
 C2:B7FEH         LINE#         1244
 C2:B804H         LINE#         1245
 C2:B80BH         LINE#         1246
 C2:B820H         LINE#         1249
 C2:B820H         LINE#         1250
 C2:B820H         LINE#         1251
 C2:B825H         LINE#         1252
 C2:B827H         LINE#         1254
 C2:B827H         LINE#         1255
 C2:B827H         LINE#         1257
 C2:B82EH         LINE#         1258
 C2:B82EH         LINE#         1259
 C2:B836H         LINE#         1260
 C2:B83CH         LINE#         1261
 C2:B843H         LINE#         1262
 C2:B845H         LINE#         1264
 C2:B845H         LINE#         1265
 C2:B845H         LINE#         1266
 C2:B84BH         LINE#         1268
 C2:B84BH         LINE#         1270
 C2:B853H         LINE#         1275
 C2:B865H         LINE#         1278
 C2:B865H         LINE#         1279
 C2:B865H         LINE#         1280
 C2:B870H         LINE#         1281
 C2:B873H         LINE#         1283
 C2:B873H         LINE#         1286
BL51 BANKED LINKER/LOCATER V6.22            10/13/2015  11:10:35  PAGE 72


 C2:B88FH         LINE#         1288
 C2:B88FH         LINE#         1289
 C2:B891H         LINE#         1290
 C2:B893H         LINE#         1291
 C2:B896H         LINE#         1292
 C2:B8A2H         LINE#         1293
 C2:B8A2H         LINE#         1295
 C2:B8A2H         LINE#         1296
 C2:B8A5H         LINE#         1297
 C2:B8A5H         LINE#         1300
 C2:B8A8H         LINE#         1301
 C2:B8A8H         LINE#         1304
 C2:B8C0H         LINE#         1305
 C2:B8F4H         LINE#         1307
 C2:B8FCH         LINE#         1308
 C2:B8FFH         LINE#         1310
 C2:B913H         LINE#         1312
 C2:B915H         LINE#         1314
 C2:B915H         LINE#         1316
 C2:B91AH         LINE#         1317
 C2:B920H         LINE#         1318
 C2:B920H         LINE#         1321
 C2:B927H         LINE#         1325
 C2:B92AH         LINE#         1326
 C2:B92AH         LINE#         1327
 C2:B931H         LINE#         1328
 C2:B931H         LINE#         1330
 C2:B940H         LINE#         1332
 C2:B94CH         LINE#         1334
 C2:B94CH         LINE#         1336
 C2:B94CH         LINE#         1337
 C2:B957H         LINE#         1338
 C2:B95BH         LINE#         1340
 C2:B95BH         LINE#         1342
 C2:B962H         LINE#         1343
 C2:B963H         LINE#         1348
 C2:B963H         LINE#         1349
 C2:B969H         LINE#         1350
 C2:B96FH         LINE#         1351
 C2:B970H         LINE#         1353
 C2:B970H         LINE#         1354
 C2:B970H         LINE#         1355
 C2:B987H         LINE#         1356
 C2:B987H         LINE#         1359
 C2:B98EH         LINE#         1361
 C2:B993H         LINE#         1366
 C2:B993H         LINE#         1367
 C2:B993H         LINE#         1373
 C2:B996H         LINE#         1378
 C2:B996H         LINE#         1380
 C2:B9A0H         LINE#         1382
 C2:B9ACH         LINE#         1384
 C2:B9B8H         LINE#         1386
 C2:B9C8H         LINE#         1388
 C2:B9D8H         LINE#         1389
 C2:B9E0H         LINE#         1391
 C2:B9EAH         LINE#         1396
 C2:B9F6H         LINE#         1397
 C2:B9FCH         LINE#         1398
 C2:B9FDH         LINE#         1400
 C2:B9FDH         LINE#         1401
 C2:B9FDH         LINE#         1402
 C2:B9FDH         LINE#         1403
 C2:BA02H         LINE#         1404
 C2:BA02H         LINE#         1405
BL51 BANKED LINKER/LOCATER V6.22            10/13/2015  11:10:35  PAGE 73


 C2:BA06H         LINE#         1410
 C2:BA0BH         LINE#         1411
 C2:BA10H         LINE#         1412
 C2:BA15H         LINE#         1414
 C2:BA1CH         LINE#         1416
 C2:BA21H         LINE#         1418
 C2:BA27H         LINE#         1420
 C2:BA27H         LINE#         1421
 C2:BA2BH         LINE#         1423
 C2:BA2BH         LINE#         1425
 C2:BA3BH         LINE#         1426
 C2:BA3BH         LINE#         1427
 C2:BA40H         LINE#         1430
 C2:BA4CH         LINE#         1431
 C2:BA4EH         LINE#         1433
 C2:BA4EH         LINE#         1434
 C2:BA51H         LINE#         1435
 C2:BA58H         LINE#         1436
 C2:BA5AH         LINE#         1438
 C2:BA5FH         LINE#         1439
 C2:BA5FH         LINE#         1443
 C2:BA6CH         LINE#         1444
 C2:BA6CH         LINE#         1445
 C2:BA75H         LINE#         1446
 C2:BA7BH         LINE#         1447
 C2:BA7DH         LINE#         1449
 C2:BA83H         LINE#         1450
 C2:BA88H         LINE#         1451
 C2:BA88H         LINE#         1453
 C2:BA88H         LINE#         1454
 C2:BA88H         LINE#         1456
 C2:BA88H         LINE#         1457
 C2:BA8FH         LINE#         1458
 C2:BA8FH         LINE#         1459
 C2:BA91H         LINE#         1460
 C2:BA97H         LINE#         1461
 C2:BA97H         LINE#         1462
 C2:BA97H         LINE#         1463
 C2:BA98H         LINE#         1465
 C2:BA98H         LINE#         1466
 C2:BAAEH         LINE#         1467
 C2:BAAFH         LINE#         1469
 C2:BAAFH         LINE#         1470
 C2:BAB5H         LINE#         1471
 C2:BAB5H         LINE#         1472
 C2:BAB5H         LINE#         1473
  -------         ENDPROC       AUTOMAT_SMS

  -------         PROC BANK=2   BREAK_GSM_REQ
 C2:E4ABH         LINE#         1476
 C2:E4ABH         LINE#         1477
 C2:E4ABH         LINE#         1478
 C2:E4B2H         LINE#         1481
 C2:E4B9H         LINE#         1483
 C2:E4C1H         LINE#         1484
 C2:E4C1H         LINE#         1488
 C2:E4C5H         LINE#         1489
 C2:E4C5H         LINE#         1490
 C2:E4CCH         LINE#         1491
 C2:E4D5H         LINE#         1492
 C2:E4D5H         LINE#         1493
 C2:E4D8H         LINE#         1494
 C2:E4DAH         LINE#         1495
 C2:E4DFH         LINE#         1496
 C2:E4E1H         LINE#         1498
BL51 BANKED LINKER/LOCATER V6.22            10/13/2015  11:10:35  PAGE 74


 C2:E4E1H         LINE#         1499
 C2:E4E6H         LINE#         1500
 C2:E4E6H         LINE#         1501
 C2:E4EBH         LINE#         1502
 C2:E4EBH         LINE#         1503
 C2:E4EBH         LINE#         1504
  -------         ENDPROC       BREAK_GSM_REQ

  -------         PROC BANK=2   _HEX_TO_DECASCII_5
  D:002EH         SYMBOL        HA
  D:0030H         SYMBOL        M
  -------         DO            
  X:1BE5H         SYMBOL        i
  X:1BE6H         SYMBOL        c_0
  X:1BE7H         SYMBOL        z
  -------         ENDDO         
 C2:DA44H         LINE#         1507
 C2:DA4EH         LINE#         1508
 C2:DA4EH         LINE#         1509
 C2:DA53H         LINE#         1510
 C2:DA55H         LINE#         1513
 C2:DA6CH         LINE#         1514
 C2:DA6CH         LINE#         1515
 C2:DA88H         LINE#         1516
 C2:DAA4H         LINE#         1517
 C2:DAB3H         LINE#         1518
 C2:DAC2H         LINE#         1519
 C2:DACEH         LINE#         1520
 C2:DAE8H         LINE#         1521
 C2:DAF0H         LINE#         1522
 C2:DAF5H         LINE#         1523
  -------         ENDPROC       _HEX_TO_DECASCII_5
 C2:C01EH         SYMBOL        L?0937

  -------         PROC BANK=2   _DO_TXTPACK_V
  D:0029H         SYMBOL        pBuf
  D:002CH         SYMBOL        G
  -------         DO            
  X:1BC6H         SYMBOL        i
  X:1BC7H         SYMBOL        j
  X:1BC8H         SYMBOL        t
  X:1BC9H         SYMBOL        b
  X:1BCBH         SYMBOL        n
  X:1BCCH         SYMBOL        M
  -------         ENDDO         
 C2:BDDAH         LINE#         1771
 C2:BDE2H         LINE#         1772
 C2:BDE2H         LINE#         1776
 C2:BDE7H         LINE#         1780
 C2:BDEAH         LINE#         1781
 C2:BDF0H         LINE#         1783
 C2:BDF8H         LINE#         1784
 C2:BE00H         LINE#         1785
 C2:BE08H         LINE#         1786
 C2:BE13H         LINE#         1788
 C2:BE18H         LINE#         1789
 C2:BE2EH         LINE#         1790
 C2:BE39H         LINE#         1794
 C2:BE44H         LINE#         1795
 C2:BE4FH         LINE#         1800
 C2:BE5AH         LINE#         1801
 C2:BE65H         LINE#         1802
 C2:BE70H         LINE#         1804
 C2:BE75H         LINE#         1805
 C2:BE8BH         LINE#         1808
BL51 BANKED LINKER/LOCATER V6.22            10/13/2015  11:10:35  PAGE 75


 C2:BE9CH         LINE#         1809
 C2:BEAAH         LINE#         1810
 C2:BEC2H         LINE#         1811
 C2:BECDH         LINE#         1813
 C2:BED7H         LINE#         1815
 C2:BEDEH         LINE#         1816
 C2:BEF3H         LINE#         1817
 C2:BEF3H         LINE#         1826
 C2:BEFFH         LINE#         1827
 C2:BF06H         LINE#         1828
 C2:BF2BH         LINE#         1829
 C2:BF4CH         LINE#         1830
 C2:BF6DH         LINE#         1831
 C2:BF8EH         LINE#         1832
 C2:BFAFH         LINE#         1833
 C2:BFD0H         LINE#         1834
 C2:BFF1H         LINE#         1836
 C2:BFFAH         LINE#         1837
 C2:C00FH         LINE#         1838
 C2:C01DH         LINE#         1839
  -------         ENDPROC       _DO_TXTPACK_V

  -------         PROC BANK=2   _DO_TXTPACK_T
  D:0029H         SYMBOL        pBuf
  D:0005H         SYMBOL        G
  D:002DH         SYMBOL        type
  -------         DO            
  X:1BC6H         SYMBOL        i
  X:1BC7H         SYMBOL        t
  X:1BC8H         SYMBOL        b
  X:1BCAH         SYMBOL        n
  -------         ENDDO         
 C2:C443H         LINE#         1842
 C2:C449H         LINE#         1843
 C2:C449H         LINE#         1847
 C2:C44EH         LINE#         1850
 C2:C453H         LINE#         1851
 C2:C45EH         LINE#         1853
 C2:C46BH         LINE#         1854
 C2:C46BH         LINE#         1855
 C2:C470H         LINE#         1856
 C2:C478H         LINE#         1857
 C2:C478H         LINE#         1858
 C2:C478H         LINE#         1859
 C2:C47AH         LINE#         1861
 C2:C47AH         LINE#         1862
 C2:C47FH         LINE#         1863
 C2:C487H         LINE#         1864
 C2:C48FH         LINE#         1865
 C2:C497H         LINE#         1866
 C2:C49FH         LINE#         1867
 C2:C4A7H         LINE#         1868
 C2:C4B2H         LINE#         1869
 C2:C4B2H         LINE#         1871
 C2:C4BBH         LINE#         1873
 C2:C4C2H         LINE#         1874
 C2:C4D7H         LINE#         1875
 C2:C4D7H         LINE#         1884
 C2:C4E3H         LINE#         1885
 C2:C4EAH         LINE#         1886
 C2:C512H         LINE#         1887
 C2:C539H         LINE#         1888
 C2:C560H         LINE#         1889
 C2:C587H         LINE#         1890
 C2:C5AEH         LINE#         1891
BL51 BANKED LINKER/LOCATER V6.22            10/13/2015  11:10:35  PAGE 76


 C2:C5D5H         LINE#         1892
 C2:C5FCH         LINE#         1894
 C2:C605H         LINE#         1895
 C2:C61AH         LINE#         1896
 C2:C628H         LINE#         1897
  -------         ENDPROC       _DO_TXTPACK_T

  -------         PROC BANK=2   _DO_TXTPACK_P
  D:0029H         SYMBOL        pBuf
  D:0005H         SYMBOL        G
  -------         DO            
  X:1BC6H         SYMBOL        i
  X:1BC7H         SYMBOL        t
  X:1BC8H         SYMBOL        b
  X:1BCAH         SYMBOL        n
  -------         ENDDO         
 C2:C02FH         LINE#         1900
 C2:C035H         LINE#         1901
 C2:C035H         LINE#         1905
 C2:C03AH         LINE#         1908
 C2:C03DH         LINE#         1909
 C2:C043H         LINE#         1913
 C2:C04BH         LINE#         1914
 C2:C053H         LINE#         1915
 C2:C05BH         LINE#         1916
 C2:C063H         LINE#         1917
 C2:C06BH         LINE#         1918
 C2:C073H         LINE#         1919
 C2:C07BH         LINE#         1920
 C2:C083H         LINE#         1921
 C2:C089H         LINE#         1922
 C2:C091H         LINE#         1923
 C2:C099H         LINE#         1924
 C2:C09FH         LINE#         1925
 C2:C0A7H         LINE#         1926
 C2:C0AFH         LINE#         1927
 C2:C0B7H         LINE#         1928
 C2:C0BFH         LINE#         1929
 C2:C0C7H         LINE#         1930
 C2:C0CFH         LINE#         1931
 C2:C0D7H         LINE#         1932
 C2:C0E2H         LINE#         1934
 C2:C0EBH         LINE#         1936
 C2:C0F2H         LINE#         1937
 C2:C107H         LINE#         1938
 C2:C107H         LINE#         1947
 C2:C113H         LINE#         1948
 C2:C11AH         LINE#         1949
 C2:C142H         LINE#         1950
 C2:C169H         LINE#         1951
 C2:C190H         LINE#         1952
 C2:C1B7H         LINE#         1953
 C2:C1DEH         LINE#         1954
 C2:C205H         LINE#         1955
 C2:C22CH         LINE#         1957
 C2:C235H         LINE#         1958
 C2:C24AH         LINE#         1959
 C2:C258H         LINE#         1960
  -------         ENDPROC       _DO_TXTPACK_P
 C2:BDADH         SYMBOL        L?0807
 C2:BDC8H         SYMBOL        L?0899

  -------         PROC BANK=2   _DO_TXTPACK_N
  D:0029H         SYMBOL        pBuf
  D:002CH         SYMBOL        G
BL51 BANKED LINKER/LOCATER V6.22            10/13/2015  11:10:35  PAGE 77


  -------         DO            
  X:1BC6H         SYMBOL        i
  X:1BC7H         SYMBOL        t
  X:1BC8H         SYMBOL        b
  X:1BCAH         SYMBOL        n
  -------         ENDDO         
 C2:BAC1H         LINE#         1963
 C2:BAC9H         LINE#         1964
 C2:BAC9H         LINE#         1968
 C2:BACEH         LINE#         1971
 C2:BAD3H         LINE#         1972
 C2:BADBH         LINE#         1974
 C2:BAE3H         LINE#         1975
 C2:BAEBH         LINE#         1976
 C2:BAF3H         LINE#         1977
 C2:BAFBH         LINE#         1978
 C2:BB03H         LINE#         1979
 C2:BB0BH         LINE#         1980
 C2:BB13H         LINE#         1981
 C2:BB1EH         LINE#         1985
 C2:BB2DH         LINE#         1986
 C2:BB33H         LINE#         1988
 C2:BB3FH         LINE#         1991
 C2:BB45H         LINE#         1992
 C2:BB58H         LINE#         1993
 C2:BB5EH         LINE#         1994
 C2:BB64H         LINE#         1997
 C2:BB70H         LINE#         2000
 C2:BB76H         LINE#         2001
 C2:BB89H         LINE#         2002
 C2:BB8FH         LINE#         2003
 C2:BB95H         LINE#         2006
 C2:BBA4H         LINE#         2009
 C2:BBAAH         LINE#         2010
 C2:BBBDH         LINE#         2011
 C2:BBC3H         LINE#         2012
 C2:BBC9H         LINE#         2015
 C2:BBD8H         LINE#         2018
 C2:BBDEH         LINE#         2019
 C2:BBF1H         LINE#         2020
 C2:BBF7H         LINE#         2021
 C2:BBFDH         LINE#         2024
 C2:BC1AH         LINE#         2027
 C2:BC20H         LINE#         2028
 C2:BC33H         LINE#         2029
 C2:BC3EH         LINE#         2031
 C2:BC48H         LINE#         2033
 C2:BC4FH         LINE#         2034
 C2:BC5EH         LINE#         2035
 C2:BC5EH         LINE#         2044
 C2:BC6AH         LINE#         2045
 C2:BC71H         LINE#         2046
 C2:BC99H         LINE#         2047
 C2:BCC0H         LINE#         2048
 C2:BCE7H         LINE#         2049
 C2:BD0EH         LINE#         2050
 C2:BD35H         LINE#         2051
 C2:BD5CH         LINE#         2052
 C2:BD83H         LINE#         2054
 C2:BD89H         LINE#         2055
 C2:BD9EH         LINE#         2056
 C2:BDACH         LINE#         2057
  -------         ENDPROC       _DO_TXTPACK_N
 C2:AE1AH         SYMBOL        L?0806
 C2:AE31H         SYMBOL        L?0816
BL51 BANKED LINKER/LOCATER V6.22            10/13/2015  11:10:35  PAGE 78


 C2:AE47H         SYMBOL        L?0831
 C2:AE5EH         SYMBOL        L?0850
 C2:AE71H         SYMBOL        L?0918

  -------         PROC BANK=2   _DO_TXTPACK_S
  D:0029H         SYMBOL        pBuf
  D:002CH         SYMBOL        G
  -------         DO            
  X:1BC6H         SYMBOL        i
  X:1BC7H         SYMBOL        j
  X:1BC8H         SYMBOL        t
  X:1BC9H         SYMBOL        sC
  X:1BCAH         SYMBOL        b
  X:1BCCH         SYMBOL        sI
  D:0082H         SYMBOL        psI
  X:1BCEH         SYMBOL        n
  X:1BCFH         SYMBOL        M
  -------         ENDDO         
 C2:A863H         LINE#         2063
 C2:A86BH         LINE#         2064
 C2:A86BH         LINE#         2071
 C2:A870H         LINE#         2075
 C2:A870H         LINE#         2076
 C2:A878H         LINE#         2078
 C2:A87BH         LINE#         2079
 C2:A87BH         LINE#         2080
 C2:A883H         LINE#         2081
 C2:A888H         LINE#         2082
 C2:A88DH         LINE#         2083
 C2:A892H         LINE#         2084
 C2:A89AH         LINE#         2085
 C2:A89AH         LINE#         2087
 C2:A8A2H         LINE#         2088
 C2:A8A7H         LINE#         2089
 C2:A8AAH         LINE#         2090
 C2:A8BAH         LINE#         2091
 C2:A8C2H         LINE#         2092
 C2:A8D3H         LINE#         2093
 C2:A8DBH         LINE#         2094
 C2:A8EBH         LINE#         2095
 C2:A8F3H         LINE#         2096
 C2:A904H         LINE#         2097
 C2:A90CH         LINE#         2098
 C2:A90CH         LINE#         2100
 C2:A911H         LINE#         2101
 C2:A916H         LINE#         2102
 C2:A91BH         LINE#         2103
 C2:A91EH         LINE#         2104
 C2:A92EH         LINE#         2105
 C2:A936H         LINE#         2106
 C2:A947H         LINE#         2107
 C2:A94FH         LINE#         2108
 C2:A95FH         LINE#         2109
 C2:A967H         LINE#         2110
 C2:A978H         LINE#         2111
 C2:A980H         LINE#         2112
 C2:A980H         LINE#         2114
 C2:A985H         LINE#         2115
 C2:A98AH         LINE#         2116
 C2:A98FH         LINE#         2117
 C2:A997H         LINE#         2118
 C2:A99AH         LINE#         2119
 C2:A9AAH         LINE#         2120
 C2:A9B5H         LINE#         2121
 C2:A9B8H         LINE#         2122
BL51 BANKED LINKER/LOCATER V6.22            10/13/2015  11:10:35  PAGE 79


 C2:A9C8H         LINE#         2123
 C2:A9D3H         LINE#         2124
 C2:A9D9H         LINE#         2125
 C2:A9E9H         LINE#         2126
 C2:A9F4H         LINE#         2127
 C2:A9FAH         LINE#         2128
 C2:AA0AH         LINE#         2129
 C2:AA15H         LINE#         2131
 C2:AA1FH         LINE#         2132
 C2:AA27H         LINE#         2133
 C2:AA2CH         LINE#         2134
 C2:AA31H         LINE#         2135
 C2:AA39H         LINE#         2136
 C2:AA43H         LINE#         2137
 C2:AA43H         LINE#         2138
 C2:AA68H         LINE#         2139
 C2:AA71H         LINE#         2140
 C2:AA76H         LINE#         2141
 C2:AA81H         LINE#         2142
 C2:AA81H         LINE#         2144
 C2:AA86H         LINE#         2145
 C2:AA8BH         LINE#         2146
 C2:AA93H         LINE#         2147
 C2:AA9BH         LINE#         2148
 C2:AAB4H         LINE#         2149
 C2:AAC0H         LINE#         2150
 C2:AAD0H         LINE#         2151
 C2:AADBH         LINE#         2152
 C2:AADBH         LINE#         2154
 C2:AAE0H         LINE#         2155
 C2:AAE5H         LINE#         2156
 C2:AAEDH         LINE#         2157
 C2:AAF9H         LINE#         2158
 C2:AAF9H         LINE#         2159
 C2:AB01H         LINE#         2160
 C2:AB04H         LINE#         2162
 C2:AB04H         LINE#         2163
 C2:AB07H         LINE#         2164
 C2:AB18H         LINE#         2165
 C2:AB3EH         LINE#         2166
 C2:AB52H         LINE#         2167
 C2:AB60H         LINE#         2168
 C2:AB70H         LINE#         2169
 C2:AB7BH         LINE#         2170
 C2:AB7BH         LINE#         2171
 C2:AB7BH         LINE#         2173
 C2:AB80H         LINE#         2174
 C2:AB85H         LINE#         2175
 C2:AB8AH         LINE#         2176
 C2:AB92H         LINE#         2177
 C2:AB9CH         LINE#         2178
 C2:AB9CH         LINE#         2180
 C2:ABA1H         LINE#         2181
 C2:ABA6H         LINE#         2182
 C2:ABABH         LINE#         2183
 C2:ABB3H         LINE#         2184
 C2:ABB6H         LINE#         2185
 C2:ABC6H         LINE#         2187
 C2:ABC6H         LINE#         2189
 C2:ABCBH         LINE#         2190
 C2:ABD0H         LINE#         2191
 C2:ABD5H         LINE#         2192
 C2:ABDDH         LINE#         2193
 C2:ABE0H         LINE#         2194
 C2:ABF0H         LINE#         2195
BL51 BANKED LINKER/LOCATER V6.22            10/13/2015  11:10:35  PAGE 80


 C2:ABF0H         LINE#         2197
 C2:ABF5H         LINE#         2198
 C2:ABFAH         LINE#         2199
 C2:ABFFH         LINE#         2200
 C2:AC04H         LINE#         2201
 C2:AC0CH         LINE#         2202
 C2:AC0FH         LINE#         2203
 C2:AC1FH         LINE#         2204
 C2:AC1FH         LINE#         2206
 C2:AC24H         LINE#         2207
 C2:AC29H         LINE#         2208
 C2:AC2EH         LINE#         2209
 C2:AC33H         LINE#         2210
 C2:AC3BH         LINE#         2211
 C2:AC3EH         LINE#         2212
 C2:AC4EH         LINE#         2213
 C2:AC4EH         LINE#         2215
 C2:AC53H         LINE#         2216
 C2:AC58H         LINE#         2217
 C2:AC5DH         LINE#         2218
 C2:AC62H         LINE#         2219
 C2:AC67H         LINE#         2220
 C2:AC6CH         LINE#         2221
 C2:AC74H         LINE#         2222
 C2:AC81H         LINE#         2223
 C2:AC86H         LINE#         2224
 C2:AC8BH         LINE#         2225
 C2:AC8DH         LINE#         2226
 C2:AC92H         LINE#         2227
 C2:AC9AH         LINE#         2228
 C2:AC9AH         LINE#         2229
 C2:ACA5H         LINE#         2231
 C2:ACAFH         LINE#         2233
 C2:ACB6H         LINE#         2234
 C2:ACCBH         LINE#         2235
 C2:ACCBH         LINE#         2244
 C2:ACD4H         LINE#         2245
 C2:ACDBH         LINE#         2246
 C2:AD03H         LINE#         2247
 C2:AD2AH         LINE#         2248
 C2:AD51H         LINE#         2249
 C2:AD78H         LINE#         2250
 C2:AD9FH         LINE#         2251
 C2:ADC6H         LINE#         2252
 C2:ADEDH         LINE#         2254
 C2:ADF6H         LINE#         2255
 C2:AE0BH         LINE#         2256
 C2:AE19H         LINE#         2257
  -------         ENDPROC       _DO_TXTPACK_S

  -------         PROC BANK=2   _DO_PACK030F
  D:0029H         SYMBOL        pBuf
  -------         DO            
  X:1BC6H         SYMBOL        n
  -------         ENDDO         
 C2:D38CH         LINE#         2260
 C2:D392H         LINE#         2261
 C2:D392H         LINE#         2262
 C2:D397H         LINE#         2268
 C2:D39AH         LINE#         2269
 C2:D3A0H         LINE#         2271
 C2:D3A6H         LINE#         2272
 C2:D3AEH         LINE#         2273
 C2:D3B6H         LINE#         2274
 C2:D3C0H         LINE#         2278
BL51 BANKED LINKER/LOCATER V6.22            10/13/2015  11:10:35  PAGE 81


 C2:D3CBH         LINE#         2282
 C2:D3D6H         LINE#         2283
 C2:D3E0H         LINE#         2284
 C2:D3EBH         LINE#         2285
 C2:D3EEH         LINE#         2286
 C2:D3F6H         LINE#         2287
 C2:D3FCH         LINE#         2295
 C2:D3FCH         LINE#         2296
 C2:D402H         LINE#         2297
 C2:D408H         LINE#         2298
 C2:D412H         LINE#         2299
 C2:D412H         LINE#         2300
 C2:D41CH         LINE#         2301
 C2:D426H         LINE#         2302
 C2:D431H         LINE#         2303
 C2:D43DH         LINE#         2308
 C2:D44BH         LINE#         2318
 C2:D45BH         LINE#         2319
 C2:D462H         LINE#         2320
 C2:D469H         LINE#         2322
 C2:D471H         LINE#         2323
 C2:D479H         LINE#         2324
 C2:D47BH         LINE#         2325
 C2:D483H         LINE#         2326
 C2:D48AH         LINE#         2328
 C2:D48CH         LINE#         2329
  -------         ENDPROC       _DO_PACK030F

  -------         PROC BANK=2   _DO_PACK53
  D:0029H         SYMBOL        pBuf
  -------         DO            
  X:1BC6H         SYMBOL        n
  -------         ENDDO         
 C2:E63DH         LINE#         2332
 C2:E643H         LINE#         2333
 C2:E643H         LINE#         2334
 C2:E648H         LINE#         2339
 C2:E653H         LINE#         2345
 C2:E663H         LINE#         2346
 C2:E665H         LINE#         2347
 C2:E66DH         LINE#         2349
 C2:E66FH         LINE#         2350
  -------         ENDPROC       _DO_PACK53
  -------         ENDMOD        IO

  -------         MODULE        RELE
  C:0000H         SYMBOL        _ICE_DUMMY_
  D:0080H         PUBLIC        P0
  D:0090H         PUBLIC        P1
  X:1C6AH         PUBLIC        _c_rele_do
  D:00FFH         PUBLIC        WDTCN
  D:00A0H         PUBLIC        P2
  D:00B0H         PUBLIC        P3
  D:00C8H         PUBLIC        P4
  D:00D8H         PUBLIC        P5
  D:00E8H         PUBLIC        P6
  D:00F8H         PUBLIC        P7
 C2:CC75H         PUBLIC        automat_rele
  B:00A0H.0       PUBLIC        P2_0
  B:00A0H.1       PUBLIC        P2_1
  B:00A0H.2       PUBLIC        P2_2
  B:00A0H.3       PUBLIC        P2_3
  X:1C6EH         PUBLIC        sTime_work_OS
  X:1C72H         PUBLIC        sTime_rele_work
 C2:D14FH         PUBLIC        _UprRele
BL51 BANKED LINKER/LOCATER V6.22            10/13/2015  11:10:35  PAGE 82


 C2:E609H         PUBLIC        initialize_rele
 C2:E77BH         PUBLIC        SaveToFlash
  D:005CH         PUBLIC        c_Rele
  X:1C82H         PUBLIC        sTime_rele_on
  X:1C92H         PUBLIC        time_rele_work
 C2:EC02H         PUBLIC        get_sost_rele
  X:1CA2H         PUBLIC        time_rele_on
 C2:D736H         SYMBOL        Com0034
 C2:D736H         SYMBOL        L?0053
 C2:D77BH         SYMBOL        L?0054
 C2:D77EH         SYMBOL        L?0055
 C2:D789H         SYMBOL        L?0056
 C2:D7A1H         SYMBOL        L?0057
 C2:D7ABH         SYMBOL        L?0058
 C2:D7C0H         SYMBOL        L?0059
 C2:D7C8H         SYMBOL        L?0060
 C2:D7C8H         SYMBOL        L?0061
 C2:D7D6H         SYMBOL        L?0062
 C2:D7E2H         SYMBOL        L?0063
 C2:D7EBH         SYMBOL        L?0064
 C2:D7F2H         SYMBOL        L?0065
 C2:D7FBH         SYMBOL        L?0066
 C2:D7FBH         SYMBOL        L?0067
 C2:D803H         SYMBOL        L?0068
 C2:D803H         SYMBOL        L?0069
  -------         PROC          COM0034
  -------         ENDPROC       COM0034

  -------         PROC BANK=2   INITIALIZE_RELE
 C2:E609H         LINE#         40
 C2:E609H         LINE#         41
 C2:E609H         LINE#         42
 C2:E60BH         LINE#         43
 C2:E60DH         LINE#         44
 C2:E60FH         LINE#         45
 C2:E611H         LINE#         46
 C2:E614H         LINE#         48
 C2:E617H         LINE#         49
 C2:E61EH         LINE#         50
 C2:E61EH         LINE#         51
 C2:E624H         LINE#         53
 C2:E62CH         LINE#         55
 C2:E639H         LINE#         56
 C2:E639H         LINE#         57
 C2:E63CH         LINE#         58
  -------         ENDPROC       INITIALIZE_RELE

  -------         PROC BANK=2   SAVETOFLASH
 C2:E77BH         LINE#         60
 C2:E77BH         LINE#         61
 C2:E77BH         LINE#         62
 C2:E77EH         LINE#         63
 C2:E78CH         LINE#         64
 C2:E796H         LINE#         65
 C2:E799H         LINE#         66
 C2:E79CH         LINE#         67
  -------         ENDPROC       SAVETOFLASH

  -------         PROC BANK=2   GET_SOST_RELE
 C2:EC02H         LINE#         69
 C2:EC02H         LINE#         70
 C2:EC02H         LINE#         71
 C2:EC08H         LINE#         73
  -------         ENDPROC       GET_SOST_RELE

BL51 BANKED LINKER/LOCATER V6.22            10/13/2015  11:10:35  PAGE 83


  -------         PROC BANK=2   AUTOMAT_RELE
  -------         DO            
  X:1BC4H         SYMBOL        Ri
  -------         ENDDO         
 C2:CC75H         LINE#         75
 C2:CC75H         LINE#         76
 C2:CC75H         LINE#         82
 C2:CC87H         LINE#         83
 C2:CC87H         LINE#         84
 C2:CCB5H         LINE#         85
 C2:CCB5H         LINE#         87
 C2:CCBEH         LINE#         89
 C2:CCC8H         LINE#         91
 C2:CCD7H         LINE#         93
 C2:CCE2H         LINE#         95
 C2:CCF5H         LINE#         96
 C2:CCF8H         LINE#         97
 C2:CCF8H         LINE#         98
 C2:CD2EH         LINE#         99
 C2:CD2EH         LINE#         101
 C2:CD37H         LINE#         102
 C2:CD41H         LINE#         104
 C2:CD50H         LINE#         106
 C2:CD5BH         LINE#         108
 C2:CD6EH         LINE#         109
 C2:CD71H         LINE#         112
 C2:CD8CH         LINE#         113
 C2:CD8CH         LINE#         114
 C2:CD99H         LINE#         115
 C2:CDAEH         LINE#         116
 C2:CDAEH         LINE#         117
 C2:CDAEH         LINE#         118
 C2:CDB1H         LINE#         119
 C2:CDBAH         LINE#         120
  -------         ENDPROC       AUTOMAT_RELE

  -------         PROC BANK=2   _UPRRELE
  D:0029H         SYMBOL        buf
  -------         DO            
  X:1BC6H         SYMBOL        NRele
  X:1BC7H         SYMBOL        i
  X:1BC8H         SYMBOL        Scale
  -------         ENDDO         
 C2:D14FH         LINE#         150
 C2:D155H         LINE#         151
 C2:D155H         LINE#         156
 C2:D167H         LINE#         157
 C2:D167H         LINE#         158
 C2:D17CH         LINE#         159
 C2:D18DH         LINE#         160
 C2:D18DH         LINE#         161
 C2:D1B2H         LINE#         162
 C2:D1B9H         LINE#         163
 C2:D1B9H         LINE#         165
 C2:D1C0H         LINE#         167
 C2:D1C0H         LINE#         168
 C2:D1C3H         LINE#         169
 C2:D1C9H         LINE#         170
 C2:D1CCH         LINE#         172
 C2:D1D8H         LINE#         173
 C2:D1D8H         LINE#         175
 C2:D218H         LINE#         177
 C2:D222H         LINE#         179
 C2:D222H         LINE#         180
 C2:D225H         LINE#         181
BL51 BANKED LINKER/LOCATER V6.22            10/13/2015  11:10:35  PAGE 84


 C2:D22BH         LINE#         182
 C2:D22BH         LINE#         183
 C2:D234H         LINE#         185
 C2:D243H         LINE#         186
 C2:D243H         LINE#         187
 C2:D24DH         LINE#         190
 C2:D24FH         LINE#         192
 C2:D251H         LINE#         193
 C2:D254H         LINE#         194
 C2:D254H         LINE#         195
 C2:D257H         LINE#         196
 C2:D25EH         LINE#         198
 C2:D260H         LINE#         200
 C2:D260H         LINE#         204
 C2:D26BH         LINE#         205
 C2:D26EH         LINE#         206
  -------         ENDPROC       _UPRRELE
  -------         ENDMOD        RELE

  -------         MODULE        SENSOR
  C:0000H         SYMBOL        _ICE_DUMMY_
 C2:EB16H         PUBLIC        automat_sensor
  D:0080H         PUBLIC        P0
  D:0090H         PUBLIC        P1
  D:00FFH         PUBLIC        WDTCN
  D:00A0H         PUBLIC        P2
  X:1CB2H         PUBLIC        count_measure_sensor
  D:00B0H         PUBLIC        P3
  D:00C8H         PUBLIC        P4
  D:00D8H         PUBLIC        P5
  D:00E8H         PUBLIC        P6
  D:00F8H         PUBLIC        P7
  D:0084H         PUBLIC        SFRPAGE
  X:1CBAH         PUBLIC        port_sensor_p
 C2:EBB6H         PUBLIC        _IsSensChange
  X:1CC2H         PUBLIC        state_sensor
 C2:EB50H         PUBLIC        _reset_sensor
  B:0027H.2       PUBLIC        _flag_secbut_on
 C2:D80AH         PUBLIC        _automat_sensor_N
  X:1CCAH         PUBLIC        port_sensor_current
  X:1CCBH         PUBLIC        port_sensor_latch
 C2:E1CAH         PUBLIC        initialize_sensor
 C2:EBD5H         PUBLIC        _AskBit
 C2:EB34H         PUBLIC        _read_port_sensor
  X:1CCCH         PUBLIC        port_sensor
  X:1CD4H         PUBLIC        time_wait_sensor
 C2:E5D3H         PUBLIC        _SensFrontTest
 C2:E52AH         PUBLIC        _SetBit
 C2:E6FCH         PUBLIC        _SetSob
  D:0052H         PUBLIC        Setup_a
  X:1CE4H         PUBLIC        i
  D:0054H         PUBLIC        Setup_t
 C2:EBF5H         PUBLIC        read_port_sensor_cur
 C2:E327H         PUBLIC        _SensAction
 C2:E166H         SYMBOL        Com0035
 C2:E166H         SYMBOL        L?0054
 C2:E17FH         SYMBOL        L?0055
 C2:E182H         SYMBOL        L?0056
 C2:E18AH         SYMBOL        L?0057
 C2:E18AH         SYMBOL        L?0058
 C2:E198H         SYMBOL        L?0059
 C2:E198H         SYMBOL        L?0060
 C2:E19BH         SYMBOL        L?0061
 C2:E1A3H         SYMBOL        L?0062
 C2:E1A4H         SYMBOL        L?0063
BL51 BANKED LINKER/LOCATER V6.22            10/13/2015  11:10:35  PAGE 85


 C2:E1B0H         SYMBOL        L?0064
 C2:E1B5H         SYMBOL        L?0065
 C2:E1BDH         SYMBOL        L?0066
 C2:E1C4H         SYMBOL        L?0067
  -------         PROC          COM0035
  -------         ENDPROC       COM0035

  -------         PROC BANK=2   READ_PORT_SENSOR_CUR
 C2:EBF5H         LINE#         47
 C2:EBF5H         LINE#         48
 C2:EBF5H         LINE#         49
 C2:EC01H         LINE#         50
  -------         ENDPROC       READ_PORT_SENSOR_CUR

  -------         PROC BANK=2   _READ_PORT_SENSOR
  D:0007H         SYMBOL        n
 C2:EB34H         LINE#         52
 C2:EB34H         LINE#         53
 C2:EB34H         LINE#         54
 C2:EB4FH         LINE#         55
  -------         ENDPROC       _READ_PORT_SENSOR

  -------         PROC BANK=2   INITIALIZE_SENSOR
 C2:E1CAH         LINE#         58
 C2:E1CAH         LINE#         59
 C2:E1CAH         LINE#         60
 C2:E1CDH         LINE#         62
 C2:E1D7H         LINE#         64
 C2:E1DCH         LINE#         66
 C2:E1EAH         LINE#         67
 C2:E1EAH         LINE#         68
 C2:E1EDH         LINE#         69
 C2:E1FCH         LINE#         70
 C2:E203H         LINE#         71
 C2:E203H         LINE#         72
 C2:E209H         LINE#         73
 C2:E211H         LINE#         75
 C2:E219H         LINE#         76
 C2:E21FH         LINE#         78
 C2:E222H         LINE#         79
  -------         ENDPROC       INITIALIZE_SENSOR

  -------         PROC BANK=2   _RESET_SENSOR
  D:0007H         SYMBOL        n
 C2:EB50H         LINE#         81
 C2:EB50H         LINE#         82
 C2:EB50H         LINE#         83
 C2:EB58H         LINE#         84
 C2:EB5EH         LINE#         86
 C2:EB61H         LINE#         87
 C2:EB61H         LINE#         88
 C2:EB67H         LINE#         90
 C2:EB6AH         LINE#         91
  -------         ENDPROC       _RESET_SENSOR

  -------         PROC BANK=2   _ASKBIT
  D:0007H         SYMBOL        I
  D:0005H         SYMBOL        n
 C2:EBD5H         LINE#         93
 C2:EBD5H         LINE#         94
 C2:EBD5H         LINE#         95
 C2:EBD8H         LINE#         96
 C2:EBE5H         LINE#         97
  -------         ENDPROC       _ASKBIT

BL51 BANKED LINKER/LOCATER V6.22            10/13/2015  11:10:35  PAGE 86


  -------         PROC BANK=2   _SETBIT
  D:002AH         SYMBOL        I
  D:0005H         SYMBOL        n
  B:0026H.5       SYMBOL        b
 C2:E52AH         LINE#         99
 C2:E530H         LINE#         100
 C2:E530H         LINE#         101
 C2:E533H         LINE#         102
 C2:E547H         LINE#         103
  -------         ENDPROC       _SETBIT
  -------         PROC          L?0068
  -------         ENDPROC       L?0068

  -------         PROC BANK=2   _ISSENSCHANGE
  D:0007H         SYMBOL        n
 C2:EBB6H         LINE#         106
 C2:EBB6H         LINE#         107
 C2:EBB6H         LINE#         109
 C2:EBC2H         LINE#         111
 C2:EBC3H         LINE#         112
  -------         ENDPROC       _ISSENSCHANGE

  -------         PROC BANK=2   _SETSOB
  D:0007H         SYMBOL        n
 C2:E6FCH         LINE#         115
 C2:E6FCH         LINE#         116
 C2:E6FCH         LINE#         117
 C2:E707H         LINE#         118
 C2:E712H         LINE#         119
 C2:E71DH         LINE#         120
 C2:E727H         LINE#         121
  -------         ENDPROC       _SETSOB

  -------         PROC BANK=2   _SENSFRONTTEST
  D:0007H         SYMBOL        Ns
 C2:E5D3H         LINE#         130
 C2:E5D3H         LINE#         131
 C2:E5D3H         LINE#         133
 C2:E5E3H         LINE#         136
 C2:E5F4H         LINE#         139
 C2:E607H         LINE#         141
 C2:E608H         LINE#         142
  -------         ENDPROC       _SENSFRONTTEST

  -------         PROC BANK=2   _SENSACTION
  D:0029H         SYMBOL        Ns
 C2:E327H         LINE#         148
 C2:E329H         LINE#         149
 C2:E329H         LINE#         151
 C2:E335H         LINE#         152
 C2:E335H         LINE#         154
 C2:E350H         LINE#         156
 C2:E357H         LINE#         157
 C2:E357H         LINE#         158
 C2:E35CH         LINE#         159
 C2:E369H         LINE#         160
 C2:E369H         LINE#         163
 C2:E37BH         LINE#         165
 C2:E37BH         LINE#         166
  -------         ENDPROC       _SENSACTION

  -------         PROC BANK=2   AUTOMAT_SENSOR
 C2:EB16H         LINE#         168
 C2:EB16H         LINE#         169
 C2:EB16H         LINE#         170
BL51 BANKED LINKER/LOCATER V6.22            10/13/2015  11:10:35  PAGE 87


 C2:EB25H         LINE#         171
 C2:EB25H         LINE#         172
 C2:EB28H         LINE#         173
 C2:EB2BH         LINE#         174
 C2:EB33H         LINE#         175
  -------         ENDPROC       AUTOMAT_SENSOR

  -------         PROC BANK=2   _AUTOMAT_SENSOR_N
  D:0028H         SYMBOL        Ns
 C2:D80AH         LINE#         177
 C2:D80CH         LINE#         178
 C2:D80CH         LINE#         179
 C2:D81FH         LINE#         180
 C2:D81FH         LINE#         181
 C2:D81FH         LINE#         182
 C2:D81FH         LINE#         183
 C2:D827H         LINE#         184
 C2:D827H         LINE#         185
 C2:D830H         LINE#         186
 C2:D835H         LINE#         189
 C2:D83CH         LINE#         190
 C2:D83CH         LINE#         191
 C2:D846H         LINE#         192
 C2:D846H         LINE#         193
 C2:D846H         LINE#         194
 C2:D846H         LINE#         195
 C2:D849H         LINE#         197
 C2:D849H         LINE#         198
 C2:D86DH         LINE#         199
 C2:D86DH         LINE#         200
 C2:D875H         LINE#         201
 C2:D87FH         LINE#         202
 C2:D87FH         LINE#         203
 C2:D880H         LINE#         205
 C2:D880H         LINE#         206
 C2:D88FH         LINE#         207
 C2:D88FH         LINE#         208
 C2:D896H         LINE#         209
 C2:D896H         LINE#         210
 C2:D89BH         LINE#         211
 C2:D89BH         LINE#         212
 C2:D8A0H         LINE#         213
 C2:D8A9H         LINE#         214
 C2:D8A9H         LINE#         215
 C2:D8B3H         LINE#         216
 C2:D8B8H         LINE#         217
 C2:D8BFH         LINE#         218
 C2:D8BFH         LINE#         219
 C2:D8C0H         LINE#         220
 C2:D8CAH         LINE#         221
 C2:D8CAH         LINE#         222
 C2:D8CBH         LINE#         224
 C2:D8CBH         LINE#         225
 C2:D8D0H         LINE#         226
 C2:D8D0H         LINE#         227
 C2:D8D0H         LINE#         228
  -------         ENDPROC       _AUTOMAT_SENSOR_N
  -------         ENDMOD        SENSOR

  -------         MODULE        SIEM_SMS
  C:0000H         SYMBOL        _ICE_DUMMY_
  D:0080H         PUBLIC        P0
  X:0F9EH         PUBLIC        tmp_telnum_pos
  X:0F9FH         PUBLIC        md_npack_mod_inc
  X:0FA0H         PUBLIC        md_who_call
BL51 BANKED LINKER/LOCATER V6.22            10/13/2015  11:10:35  PAGE 88


  D:0090H         PUBLIC        P1
 C2:99F6H         PUBLIC        Automat_InitSim
 C2:E96BH         PUBLIC        Command_ATH
 C2:E6A0H         PUBLIC        _Send_modem
  D:00FFH         PUBLIC        WDTCN
  D:00A0H         PUBLIC        P2
  D:00B0H         PUBLIC        P3
  D:00C8H         PUBLIC        P4
 C2:D02BH         PUBLIC        Command_E2IPO
  D:00D8H         PUBLIC        P5
  B:00A8H.7       PUBLIC        EA
  D:00E8H         PUBLIC        P6
  D:00F8H         PUBLIC        P7
  B:0022H.7       PUBLIC        _flag_need_delete_sms
  D:008FH         PUBLIC        PSCTL
 C2:EA31H         PUBLIC        Command_E2IPS
 C2:E9ADH         PUBLIC        Command_ATO
  C:5867H         PUBLIC        Month
 C2:D580H         PUBLIC        RestartToLoader
 C2:E01BH         PUBLIC        _Comp_telnum
  D:0084H         PUBLIC        SFRPAGE
 C2:EAF7H         PUBLIC        Delete_sms
 C2:E4ECH         PUBLIC        _Get_num_sms_fr_ASCII
  X:0FA1H         PUBLIC        sTime_Net
 C2:E421H         PUBLIC        _Command_del_sms
 C2:E908H         PUBLIC        Command_ATaD1
  D:00A1H         PUBLIC        CCH0CN
  X:0FA5H         PUBLIC        who_send_sms
  X:0FA6H         PUBLIC        state_sim_wk
  X:0FA7H         PUBLIC        rx_data_sim
 C2:8000H         PUBLIC        Automat_sms_phone
  B:00B0H.1       PUBLIC        P3_1
  B:00A0H.5       PUBLIC        P2_5
  B:0090H.7       PUBLIC        P1_7
  B:0023H.0       PUBLIC        _flag_need_wait_SR
 C2:E8E7H         PUBLIC        Command_get_read_sms
  B:00B0H.7       PUBLIC        P3_7
  X:0FA8H         PUBLIC        state_sim_rx
 C2:DEACH         PUBLIC        Analise_tel_num
 C2:E9EFH         PUBLIC        Command_IDSIM
  X:0FA9H         PUBLIC        current_sms_signal_level
  B:0023H.1       PUBLIC        _flag_tel_ready
 C2:E37CH         PUBLIC        _Command_read_telDC_sim
  X:0FAAH         PUBLIC        sms_receive_buffer_len
 C2:EB99H         PUBLIC        Is_new_sms
  X:0FABH         PUBLIC        need_write_telDC_ix
 C2:EA94H         PUBLIC        Command_CGCEREP
 C2:E929H         PUBLIC        Command_ATaS1
 C2:EAD6H         PUBLIC        Command_CGSMS
  X:0FACH         PUBLIC        sim_line_tx
  B:0023H.2       PUBLIC        md_f_need_send
  X:106BH         PUBLIC        len_telnum_ascii
  X:106CH         PUBLIC        count_worksms
 C2:E27BH         PUBLIC        Command_CGDCONT
 C2:D98BH         PUBLIC        _GetTel_ATSO_to_SO
  X:106DH         PUBLIC        code_access_sms
  X:106EH         PUBLIC        state_init_sim_wk
 C2:EA10H         PUBLIC        Command_E2SMSRI
 C2:E863H         PUBLIC        Command_read_telSC_sim
 C2:CF01H         PUBLIC        _do_pack_tel_8b_sms
  X:106FH         PUBLIC        strS
  B:0023H.3       PUBLIC        _flag_sms_signal_level_null
 C2:E0FCH         PUBLIC        _full_buf_num_tel
  B:0023H.4       PUBLIC        _flag_need_read_all_tels
  X:1073H         PUBLIC        tp_st_result
BL51 BANKED LINKER/LOCATER V6.22            10/13/2015  11:10:35  PAGE 89


  B:0023H.5       PUBLIC        _flag_need_delete_badsms
  X:1074H         PUBLIC        count_try_tn
  X:1075H         PUBLIC        context_gsm
 C2:C259H         PUBLIC        _Get_HTTP_Time
 C2:E884H         PUBLIC        Command_get_quality_signal
 C2:E8C6H         PUBLIC        Command_network_registration
 C2:EC09H         PUBLIC        Is_sms_send_out
  X:108AH         PUBLIC        tmp_telnum_ascii
 C2:C9A3H         PUBLIC        Automat_PerSimWork
  X:109DH         PUBLIC        len_telnum
  X:109EH         PUBLIC        state_per_sim_wk
 C2:E3D0H         PUBLIC        _Get_byte_fr_ASCII
  B:0023H.6       PUBLIC        _flag_need_send_sms
 C2:EBE6H         PUBLIC        _Send_sms
  X:109FH         PUBLIC        md_resetGSM
 C2:E800H         PUBLIC        Command_ATS7
  X:10A0H         PUBLIC        n_mem_sms
  X:10A1H         PUBLIC        sim_line_tx_len
  X:10A2H         PUBLIC        D_date
 C2:E94AH         PUBLIC        Command_3p
  X:10A3H         PUBLIC        G_date
  X:10A5H         PUBLIC        count_uart_data
  X:10A7H         PUBLIC        md_CS
 C2:DFA7H         PUBLIC        Init_sms_phone
  B:00A8H.5       PUBLIC        ET2
 C2:E821H         PUBLIC        Command_CNMI
 C2:8EE7H         PUBLIC        AnaliseLine
  X:10A8H         PUBLIC        tmp_telnum
 C2:EA73H         PUBLIC        Command_CLIP
  X:10B2H         PUBLIC        M_date
 C2:E79DH         PUBLIC        Command_CPBS_SM
  B:0023H.7       PUBLIC        _flag_tel_ready_R
  X:10B3H         PUBLIC        index_sms
 C2:E98CH         PUBLIC        Command_CHLD_1
 C2:E842H         PUBLIC        Command_CBST
  X:10B4H         PUBLIC        md_Len
  X:10B5H         PUBLIC        count_error_no_reply_from_sms
 C2:E8A5H         PUBLIC        Command_test_network
  X:10B6H         PUBLIC        Scounter
 C2:E7BEH         PUBLIC        Command_CPMS_SM
  X:10B7H         PUBLIC        md_mode
  X:10B8H         PUBLIC        _c_ans_kom_rx
 C2:E08DH         PUBLIC        _GetTel_SO_to_ASCII
 C2:D8D1H         PUBLIC        _GetTel_ASCII_to_SO
  X:10B9H         PUBLIC        c_flag_sms_send_out
  B:0024H.0       PUBLIC        _flag_new_sms
  X:10BAH         PUBLIC        count_atz
 C2:E563H         PUBLIC        _HexASCII_to_Hex
  B:0024H.1       PUBLIC        _flag_new_line_sim
 C2:EB82H         PUBLIC        Read_new_sms
  X:10BBH         PUBLIC        sec_for_numtel
 C2:DCEFH         PUBLIC        _full_buf_num_tel2
  D:00EFH         PUBLIC        RSTSRC
 C2:E728H         PUBLIC        Restart_phone
  X:10BCH         PUBLIC        buf_read_sim
  X:1225H         PUBLIC        n_mem_badsms
  B:0024H.2       PUBLIC        _f_SMS_accept_type_8bit
  B:0024H.3       PUBLIC        _f_SMS_noanswer
 C2:DAF6H         PUBLIC        Command_ENAD1
 C2:E7DFH         PUBLIC        Command_ATS10
 C2:CDBBH         PUBLIC        GetN
 C2:E670H         PUBLIC        _Hex_to_HexASCII_Hi
 C2:E754H         PUBLIC        _Send_str_sim
 C2:CB1EH         PUBLIC        Receive_sim
 C2:E59CH         PUBLIC        Get_quality_signal
BL51 BANKED LINKER/LOCATER V6.22            10/13/2015  11:10:35  PAGE 90


  D:00B7H         PUBLIC        FLSCL
 C2:EAB5H         PUBLIC        Command_E2IPA
 C2:EC12H         PUBLIC        IsNonDelete_sms
 C2:D65FH         PUBLIC        _Write_tel_to_phone
 C2:EC0FH         PUBLIC        Is_new_sms_8bit
  X:1226H         PUBLIC        tel_num
 C2:E6CFH         PUBLIC        _Hex_to_HexASCII_Lo
 C2:E9CEH         PUBLIC        Command_ATA
  X:1322H         PUBLIC        sms_receive_buffer
 C2:EA52H         PUBLIC        Command_CRC
  X:13AFH         PUBLIC        count_p
 C2:B2C5H         SYMBOL        Com04C7
 C2:B2C5H         SYMBOL        L?1224
 C2:B2C5H         SYMBOL        L?1225
 C2:B2D1H         SYMBOL        L?1227
 C2:B2D4H         SYMBOL        L?1228
 C2:B2D5H         SYMBOL        L?1229
 C2:B2E3H         SYMBOL        L?1232
 C2:B2E8H         SYMBOL        L?1233
 C2:B2E9H         SYMBOL        L?1234
 C2:B2EAH         SYMBOL        L?1235
 C2:B2F2H         SYMBOL        L?1238
 C2:B2F2H         SYMBOL        L?1239
 C2:B2FFH         SYMBOL        L?1240
 C2:B300H         SYMBOL        L?1241
 C2:B301H         SYMBOL        L?1242
 C2:B310H         SYMBOL        L?1243
 C2:B310H         SYMBOL        L?1244
 C2:B319H         SYMBOL        L?1246
 C2:B31BH         SYMBOL        L?1247
 C2:B31CH         SYMBOL        L?1248
 C2:B31DH         SYMBOL        L?1249
 C2:B328H         SYMBOL        L?1250
 C2:B32DH         SYMBOL        L?1251
 C2:B335H         SYMBOL        L?1254
 C2:B335H         SYMBOL        L?1255
 C2:B338H         SYMBOL        L?1256
 C2:B33CH         SYMBOL        L?1257
 C2:B33FH         SYMBOL        L?1258
 C2:B347H         SYMBOL        L?1259
 C2:B351H         SYMBOL        L?1260
 C2:B352H         SYMBOL        L?1261
 C2:B355H         SYMBOL        L?1262
 C2:B35CH         SYMBOL        L?1263
 C2:B36CH         SYMBOL        L?1264
 C2:B370H         SYMBOL        L?1265
 C2:B373H         SYMBOL        L?1266
 C2:B37BH         SYMBOL        L?1268
 C2:B380H         SYMBOL        L?1269
 C2:B385H         SYMBOL        L?1270
 C2:B394H         SYMBOL        L?1271
 C2:B39EH         SYMBOL        L?1274
 C2:B39EH         SYMBOL        L?1275
 C2:B3A0H         SYMBOL        L?1276
 C2:B3A8H         SYMBOL        L?1277
 C2:B3AAH         SYMBOL        L?1278
 C2:B3ACH         SYMBOL        L?1279
 C2:B3AFH         SYMBOL        L?1280
 C2:B3BAH         SYMBOL        L?1284
 C2:B3BBH         SYMBOL        L?1285
 C2:B3C1H         SYMBOL        L?1286
 C2:B3C8H         SYMBOL        L?1287
 C2:B3C8H         SYMBOL        L?1288
 C2:B3C9H         SYMBOL        L?1289
 C2:B3D0H         SYMBOL        L?1292
BL51 BANKED LINKER/LOCATER V6.22            10/13/2015  11:10:35  PAGE 91


 C2:B3D3H         SYMBOL        L?1293
 C2:B3DEH         SYMBOL        L?1294
 C2:B3E1H         SYMBOL        L?1295
 C2:B3E5H         SYMBOL        L?1296
 C2:B3E7H         SYMBOL        L?1297
 C2:B3EFH         SYMBOL        L?1300
 C2:B3FBH         SYMBOL        L?1301
 C2:B3FEH         SYMBOL        L?1302
 C2:B3FFH         SYMBOL        L?1303
 C2:B406H         SYMBOL        L?1304
 C2:B406H         SYMBOL        L?1305
 C2:B407H         SYMBOL        L?1306
 C2:B40EH         SYMBOL        L?1310
 C2:B40EH         SYMBOL        L?1311
 C2:B416H         SYMBOL        L?1314
 C2:B41FH         SYMBOL        L?1315
 C2:B420H         SYMBOL        L?1316
 C2:B422H         SYMBOL        L?1317
 C2:B428H         SYMBOL        L?1319
 C2:B428H         SYMBOL        L?1320
 C2:B431H         SYMBOL        L?1321
 C2:B439H         SYMBOL        L?1323
 C2:B449H         SYMBOL        L?1324
 C2:B44AH         SYMBOL        L?1325
 C2:B452H         SYMBOL        L?1326
 C2:B452H         SYMBOL        L?1327
 C2:B453H         SYMBOL        L?1328
 C2:B454H         SYMBOL        L?1329
 C2:B457H         SYMBOL        L?1330
 C2:B45FH         SYMBOL        L?1331
 C2:B45FH         SYMBOL        L?1332
 C2:B460H         SYMBOL        L?1333
 C2:B470H         SYMBOL        L?1335
 C2:B497H         SYMBOL        L?1337
 C2:B497H         SYMBOL        L?1338
 C2:B49FH         SYMBOL        L?1340
 C2:B49FH         SYMBOL        L?1341
 C2:B4A9H         SYMBOL        L?1344
 C2:B4A9H         SYMBOL        L?1345
 C2:B4B1H         SYMBOL        L?1346
 C2:B4B8H         SYMBOL        L?1347
 C2:B4B8H         SYMBOL        L?1348
 C2:B4B9H         SYMBOL        L?1349
 C2:B4C0H         SYMBOL        L?1350
 C2:B4C0H         SYMBOL        L?1351
 C2:B4C7H         SYMBOL        L?1355
 C2:B4C7H         SYMBOL        L?1356
 C2:B4C9H         SYMBOL        L?1357
 C2:B4D4H         SYMBOL        L?1358
 C2:B4D4H         SYMBOL        L?1359
 C2:B4E0H         SYMBOL        L?1360
 C2:B4E3H         SYMBOL        L?1361
 C2:B4EAH         SYMBOL        L?1363
 C2:B4F9H         SYMBOL        L?1364
 C2:B500H         SYMBOL        L?1365
 C2:B500H         SYMBOL        L?1366
 C2:B501H         SYMBOL        L?1367
 C2:B508H         SYMBOL        L?1368
 C2:B508H         SYMBOL        L?1369
 C2:B509H         SYMBOL        L?1370
 C2:B511H         SYMBOL        L?1371
 C2:B514H         SYMBOL        L?1372
 C2:B521H         SYMBOL        L?1374
 C2:B521H         SYMBOL        L?1375
 C2:B522H         SYMBOL        L?1376
BL51 BANKED LINKER/LOCATER V6.22            10/13/2015  11:10:35  PAGE 92


 C2:B52AH         SYMBOL        L?1380
 C2:B52AH         SYMBOL        L?1381
 C2:B52BH         SYMBOL        L?1382
 C2:B532H         SYMBOL        L?1383
 C2:B539H         SYMBOL        L?1384
 C2:B542H         SYMBOL        L?1385
 C2:B542H         SYMBOL        L?1386
 C2:B54AH         SYMBOL        L?1387
 C2:B55DH         SYMBOL        L?1390
 C2:B55DH         SYMBOL        L?1391
 C2:B564H         SYMBOL        L?1392
 C2:B564H         SYMBOL        L?1393
 C2:B56BH         SYMBOL        L?1394
 C2:B56BH         SYMBOL        L?1395
 C2:B56CH         SYMBOL        L?1396
 C2:B573H         SYMBOL        L?1400
 C2:B576H         SYMBOL        L?1401
 C2:B57FH         SYMBOL        L?1402
 C2:B57FH         SYMBOL        L?1403
 C2:B585H         SYMBOL        L?1404
 C2:B595H         SYMBOL        L?1405
 C2:B595H         SYMBOL        L?1406
 C2:B59DH         SYMBOL        L?1409
 C2:B5A0H         SYMBOL        L?1410
 C2:B5A7H         SYMBOL        L?1411
 C2:B5A7H         SYMBOL        L?1412
 C2:B5A8H         SYMBOL        L?1413
 C2:B5AFH         SYMBOL        L?1414
 C2:B5BDH         SYMBOL        L?1415
 C2:B5CBH         SYMBOL        L?1416
 C2:B5CBH         SYMBOL        L?1417
 C2:B5D4H         SYMBOL        L?1418
 C2:B5E2H         SYMBOL        L?1419
 C2:B5E4H         SYMBOL        L?1420
 C2:B5ECH         SYMBOL        L?1421
 C2:B5ECH         SYMBOL        L?1422
 C2:B5F5H         SYMBOL        L?1423
 C2:B5F6H         SYMBOL        L?1424
 C2:B5FDH         SYMBOL        L?1427
 C2:B5FDH         SYMBOL        L?1428
 C2:B604H         SYMBOL        L?1429
 C2:B611H         SYMBOL        L?1430
 C2:B61EH         SYMBOL        L?1431
 C2:B61EH         SYMBOL        L?1432
 C2:B625H         SYMBOL        L?1433
 C2:B625H         SYMBOL        L?1434
 C2:B62CH         SYMBOL        L?1435
 C2:B639H         SYMBOL        L?1436
 C2:B63AH         SYMBOL        L?1437
 C2:B642H         SYMBOL        L?1438
 C2:B645H         SYMBOL        L?1439
 C2:B64CH         SYMBOL        L?1440
 C2:B64CH         SYMBOL        L?1441
 C2:B653H         SYMBOL        L?1442
 C2:B653H         SYMBOL        L?1443
 C2:B65BH         SYMBOL        L?1444
 C2:B666H         SYMBOL        L?1445
 C2:B668H         SYMBOL        L?1446
 C2:B66FH         SYMBOL        L?1447
 C2:B66FH         SYMBOL        L?1448
 C2:B677H         SYMBOL        L?1451
 C2:B678H         SYMBOL        L?1452
 C2:B67FH         SYMBOL        L?1453
 C2:B68AH         SYMBOL        L?1454
 C2:B68BH         SYMBOL        L?1455
BL51 BANKED LINKER/LOCATER V6.22            10/13/2015  11:10:35  PAGE 93


 C2:B692H         SYMBOL        L?1456
 C2:B69DH         SYMBOL        L?1457
 C2:B69DH         SYMBOL        L?1458
 C2:B6A4H         SYMBOL        L?1459
 C2:B6A4H         SYMBOL        L?1460
 C2:B6ABH         SYMBOL        L?1461
 C2:B6ABH         SYMBOL        L?1462
 C2:B6B2H         SYMBOL        L?1463
 C2:B6B2H         SYMBOL        L?1464
 C2:B6B9H         SYMBOL        L?1465
 C2:B6B9H         SYMBOL        L?1466
 C2:B6C0H         SYMBOL        L?1467
 C2:B6C0H         SYMBOL        L?1468
 C2:B6C7H         SYMBOL        L?1469
 C2:B6C7H         SYMBOL        L?1470
 C2:B6CEH         SYMBOL        L?1471
 C2:B6CEH         SYMBOL        L?1472
  -------         PROC          COM04C7
  -------         ENDPROC       COM04C7

  -------         PROC BANK=2   GETN
  -------         DO            
  X:1BCFH         SYMBOL        D
  X:1BD3H         SYMBOL        M
  X:1BD7H         SYMBOL        G
  X:1BDBH         SYMBOL        S
  X:1BDFH         SYMBOL        C
  X:1BE3H         SYMBOL        N
  X:1BE7H         SYMBOL        D1
  -------         ENDDO         
 C2:CDBBH         LINE#         226
 C2:CDBBH         LINE#         227
 C2:CDBBH         LINE#         228
 C2:CDC7H         LINE#         229
 C2:CDD3H         LINE#         230
 C2:CDE4H         LINE#         236
 C2:CE05H         LINE#         237
 C2:CE27H         LINE#         238
 C2:CE39H         LINE#         239
 C2:CE83H         LINE#         240
 C2:CED2H         LINE#         241
 C2:CEF9H         LINE#         242
 C2:CF00H         LINE#         243
  -------         ENDPROC       GETN
 C2:C429H         SYMBOL        L?1339
 C2:C436H         SYMBOL        L?1399

  -------         PROC BANK=2   _GET_HTTP_TIME
  D:0029H         SYMBOL        pInput
  -------         DO            
  X:1BC4H         SYMBOL        N_day
  X:1BC8H         SYMBOL        NumWeek
  X:1BCAH         SYMBOL        H_time
  X:1BCBH         SYMBOL        M_time
  X:1BCCH         SYMBOL        S_time
  X:1BCDH         SYMBOL        DayWeek
  X:1BCEH         SYMBOL        c
  -------         ENDDO         
 C2:C259H         LINE#         246
 C2:C25DH         LINE#         247
 C2:C25DH         LINE#         257
 C2:C27BH         LINE#         258
 C2:C28BH         LINE#         260
 C2:C29BH         LINE#         261
 C2:C2ABH         LINE#         262
BL51 BANKED LINKER/LOCATER V6.22            10/13/2015  11:10:35  PAGE 94


 C2:C2BBH         LINE#         264
 C2:C2CAH         LINE#         265
 C2:C30DH         LINE#         267
 C2:C315H         LINE#         269
 C2:C31EH         LINE#         271
 C2:C320H         LINE#         272
 C2:C33FH         LINE#         273
 C2:C358H         LINE#         277
 C2:C3BCH         LINE#         278
 C2:C3BFH         LINE#         279
 C2:C3BFH         LINE#         280
 C2:C3C1H         LINE#         281
 C2:C3E8H         LINE#         282
 C2:C3E8H         LINE#         283
 C2:C426H         LINE#         284
 C2:C428H         LINE#         285
  -------         ENDPROC       _GET_HTTP_TIME

  -------         PROC BANK=2   INIT_SMS_PHONE
  -------         DO            
  X:1BC4H         SYMBOL        i
  X:1BC5H         SYMBOL        j
  -------         ENDDO         
 C2:DFA7H         LINE#         290
 C2:DFA7H         LINE#         291
 C2:DFA7H         LINE#         294
 C2:DFB6H         LINE#         295
 C2:DFB6H         LINE#         296
 C2:DFBBH         LINE#         297
 C2:DFC1H         LINE#         298
 C2:DFDEH         LINE#         299
 C2:DFE8H         LINE#         300
 C2:DFEEH         LINE#         301
 C2:DFF8H         LINE#         302
 C2:E001H         LINE#         304
 C2:E004H         LINE#         306
 C2:E007H         LINE#         307
 C2:E012H         LINE#         308
 C2:E017H         LINE#         309
 C2:E01AH         LINE#         310
  -------         ENDPROC       INIT_SMS_PHONE

  -------         PROC BANK=2   RECEIVE_SIM
 C2:CB1EH         LINE#         314
 C2:CB1EH         LINE#         315
 C2:CB1EH         LINE#         316
 C2:CB4EH         LINE#         317
 C2:CB4EH         LINE#         318
 C2:CB4EH         LINE#         319
 C2:CB5EH         LINE#         320
 C2:CB63H         LINE#         321
 C2:CB6BH         LINE#         322
 C2:CB74H         LINE#         324
 C2:CB80H         LINE#         326
 C2:CB86H         LINE#         327
 C2:CB87H         LINE#         329
 C2:CB87H         LINE#         331
 C2:CB90H         LINE#         332
 C2:CB90H         LINE#         333
 C2:CB98H         LINE#         334
 C2:CB98H         LINE#         335
 C2:CB9AH         LINE#         337
 C2:CB9AH         LINE#         339
 C2:CBABH         LINE#         340
 C2:CBB9H         LINE#         341
BL51 BANKED LINKER/LOCATER V6.22            10/13/2015  11:10:35  PAGE 95


 C2:CBC8H         LINE#         342
 C2:CBC8H         LINE#         343
 C2:CBCAH         LINE#         345
 C2:CBCAH         LINE#         347
 C2:CBDEH         LINE#         348
 C2:CBDEH         LINE#         349
 C2:CBE0H         LINE#         350
 C2:CBE5H         LINE#         351
 C2:CBE5H         LINE#         352
 C2:CBE6H         LINE#         355
 C2:CBE6H         LINE#         356
 C2:CBEEH         LINE#         357
 C2:CBEEH         LINE#         358
 C2:CBF1H         LINE#         359
 C2:CBF7H         LINE#         361
 C2:CBF8H         LINE#         363
 C2:CBFCH         LINE#         364
 C2:CBFCH         LINE#         365
 C2:CBFFH         LINE#         366
 C2:CC05H         LINE#         367
 C2:CC06H         LINE#         368
 C2:CC09H         LINE#         369
 C2:CC0BH         LINE#         371
 C2:CC0BH         LINE#         372
 C2:CC0EH         LINE#         373
 C2:CC1AH         LINE#         374
 C2:CC1AH         LINE#         375
 C2:CC20H         LINE#         376
 C2:CC20H         LINE#         377
 C2:CC20H         LINE#         378
 C2:CC20H         LINE#         379
 C2:CC23H         LINE#         381
 C2:CC23H         LINE#         382
 C2:CC23H         LINE#         384
 C2:CC26H         LINE#         385
 C2:CC32H         LINE#         386
 C2:CC32H         LINE#         387
 C2:CC3CH         LINE#         388
 C2:CC44H         LINE#         389
 C2:CC48H         LINE#         391
 C2:CC48H         LINE#         392
 C2:CC4BH         LINE#         394
 C2:CC4BH         LINE#         395
 C2:CC4BH         LINE#         396
 C2:CC4CH         LINE#         398
 C2:CC4CH         LINE#         400
 C2:CC4CH         LINE#         404
 C2:CC4FH         LINE#         405
 C2:CC5FH         LINE#         406
 C2:CC5FH         LINE#         407
 C2:CC61H         LINE#         408
 C2:CC61H         LINE#         409
 C2:CC61H         LINE#         410
 C2:CC63H         LINE#         412
 C2:CC63H         LINE#         413
 C2:CC6CH         LINE#         414
 C2:CC6EH         LINE#         416
 C2:CC6EH         LINE#         417
 C2:CC74H         LINE#         418
 C2:CC74H         LINE#         419
 C2:CC74H         LINE#         420
  -------         ENDPROC       RECEIVE_SIM

  -------         PROC BANK=2   _HEXASCII_TO_HEX
  D:0007H         SYMBOL        HA
BL51 BANKED LINKER/LOCATER V6.22            10/13/2015  11:10:35  PAGE 96


 C2:E563H         LINE#         423
 C2:E563H         LINE#         424
 C2:E563H         LINE#         425
 C2:E575H         LINE#         426
 C2:E587H         LINE#         427
 C2:E599H         LINE#         428
 C2:E59BH         LINE#         429
  -------         ENDPROC       _HEXASCII_TO_HEX

  -------         PROC BANK=2   _HEX_TO_HEXASCII_HI
  D:0007H         SYMBOL        Hx
  -------         DO            
  X:1BD4H         SYMBOL        HA
  -------         ENDDO         
 C2:E670H         LINE#         432
 C2:E670H         LINE#         433
 C2:E670H         LINE#         435
 C2:E67AH         LINE#         436
 C2:E68BH         LINE#         437
 C2:E69FH         LINE#         438
  -------         ENDPROC       _HEX_TO_HEXASCII_HI

  -------         PROC BANK=2   _HEX_TO_HEXASCII_LO
  D:0007H         SYMBOL        Hx
  -------         DO            
  X:1BD4H         SYMBOL        HA
  -------         ENDDO         
 C2:E6CFH         LINE#         441
 C2:E6CFH         LINE#         442
 C2:E6CFH         LINE#         444
 C2:E6D6H         LINE#         445
 C2:E6E7H         LINE#         446
 C2:E6FBH         LINE#         447
  -------         ENDPROC       _HEX_TO_HEXASCII_LO

  -------         PROC BANK=2   _GETTEL_ASCII_TO_SO
  D:002FH         SYMBOL        tel_SO
  D:0032H         SYMBOL        tel_ascii
  D:0035H         SYMBOL        Len
  -------         DO            
  X:1C68H         SYMBOL        i
  X:1C69H         SYMBOL        j
  -------         ENDDO         
 C2:D8D1H         LINE#         454
 C2:D8D7H         LINE#         455
 C2:D8D7H         LINE#         457
 C2:D8E1H         LINE#         458
 C2:D8EAH         LINE#         459
 C2:D8EAH         LINE#         460
 C2:D8EFH         LINE#         461
 C2:D8F4H         LINE#         462
 C2:D8F6H         LINE#         464
 C2:D8F6H         LINE#         465
 C2:D8FAH         LINE#         466
 C2:D902H         LINE#         467
 C2:D902H         LINE#         469
 C2:D911H         LINE#         470
 C2:D911H         LINE#         471
 C2:D92EH         LINE#         472
 C2:D939H         LINE#         473
 C2:D969H         LINE#         475
 C2:D97CH         LINE#         476
 C2:D982H         LINE#         477
 C2:D985H         LINE#         478
 C2:D98AH         LINE#         479
BL51 BANKED LINKER/LOCATER V6.22            10/13/2015  11:10:35  PAGE 97


  -------         ENDPROC       _GETTEL_ASCII_TO_SO

  -------         PROC BANK=2   _GETTEL_ATSO_TO_SO
  D:0028H         SYMBOL        tel_current
  D:002BH         SYMBOL        tel_Buf
  D:002EH         SYMBOL        len
  -------         DO            
  X:1BD2H         SYMBOL        i
  X:1BD3H         SYMBOL        j
  -------         ENDDO         
 C2:D98BH         LINE#         484
 C2:D991H         LINE#         485
 C2:D991H         LINE#         487
 C2:D996H         LINE#         488
 C2:D998H         LINE#         489
 C2:D998H         LINE#         490
 C2:D998H         LINE#         491
 C2:D9A7H         LINE#         492
 C2:D9CAH         LINE#         493
 C2:D9E3H         LINE#         494
 C2:D9FCH         LINE#         495
 C2:DA0CH         LINE#         496
 C2:DA12H         LINE#         497
 C2:DA34H         LINE#         498
 C2:DA3BH         LINE#         499
 C2:DA3EH         LINE#         500
 C2:DA43H         LINE#         501
  -------         ENDPROC       _GETTEL_ATSO_TO_SO

  -------         PROC BANK=2   _GETTEL_SO_TO_ASCII
  D:002DH         SYMBOL        tel_ascii
  D:0030H         SYMBOL        tel_SO
  D:0033H         SYMBOL        len
  -------         DO            
  X:1BCEH         SYMBOL        i
  X:1BCFH         SYMBOL        j
  -------         ENDDO         
 C2:E08DH         LINE#         531
 C2:E093H         LINE#         532
 C2:E093H         LINE#         533
 C2:E098H         LINE#         534
 C2:E09AH         LINE#         536
 C2:E0A6H         LINE#         537
 C2:E0A6H         LINE#         538
 C2:E0B1H         LINE#         539
 C2:E0B7H         LINE#         540
 C2:E0B7H         LINE#         541
 C2:E0BDH         LINE#         543
 C2:E0BDH         LINE#         544
 C2:E0BDH         LINE#         545
 C2:E0CAH         LINE#         546
 C2:E0D4H         LINE#         547
 C2:E0DAH         LINE#         548
 C2:E0E4H         LINE#         549
 C2:E0EAH         LINE#         550
 C2:E0F0H         LINE#         551
 C2:E0F6H         LINE#         553
 C2:E0FBH         LINE#         554
  -------         ENDPROC       _GETTEL_SO_TO_ASCII

  -------         PROC BANK=2   _GET_BYTE_FR_ASCII
  D:0001H         SYMBOL        Buf
 C2:E3D0H         LINE#         557
 C2:E3D0H         LINE#         558
 C2:E3D0H         LINE#         560
BL51 BANKED LINKER/LOCATER V6.22            10/13/2015  11:10:35  PAGE 98


 C2:E3DAH         LINE#         562
 C2:E3E7H         LINE#         564
 C2:E3FCH         LINE#         566
 C2:E41EH         LINE#         567
 C2:E420H         LINE#         568
  -------         ENDPROC       _GET_BYTE_FR_ASCII

  -------         PROC BANK=2   _GET_NUM_SMS_FR_ASCII
  D:0001H         SYMBOL        Buf
 C2:E4ECH         LINE#         571
 C2:E4ECH         LINE#         572
 C2:E4ECH         LINE#         573
 C2:E4FAH         LINE#         575
 C2:E50DH         LINE#         577
 C2:E527H         LINE#         578
 C2:E529H         LINE#         579
  -------         ENDPROC       _GET_NUM_SMS_FR_ASCII

  -------         PROC BANK=2   _COMP_TELNUM
  D:0028H         SYMBOL        ctelnum
  D:002BH         SYMBOL        clen_telnum
  D:002CH         SYMBOL        ID
  -------         DO            
  X:1BD2H         SYMBOL        i
  -------         ENDDO         
 C2:E01BH         LINE#         613
 C2:E023H         LINE#         614
 C2:E023H         LINE#         617
 C2:E030H         LINE#         619
 C2:E044H         LINE#         620
 C2:E044H         LINE#         621
 C2:E081H         LINE#         622
 C2:E081H         LINE#         624
 C2:E083H         LINE#         625
 C2:E083H         LINE#         626
 C2:E08BH         LINE#         628
 C2:E08CH         LINE#         629
  -------         ENDPROC       _COMP_TELNUM
 C2:997CH         SYMBOL        L?1273
 C2:9995H         SYMBOL        L?1290
 C2:999CH         SYMBOL        L?1291
 C2:99A3H         SYMBOL        L?1307
 C2:99AAH         SYMBOL        L?1312
 C2:99B1H         SYMBOL        L?1322
 C2:99B8H         SYMBOL        L?1334
 C2:99BFH         SYMBOL        L?1342
 C2:99C6H         SYMBOL        L?1362
 C2:99CDH         SYMBOL        L?1379
 C2:99D4H         SYMBOL        L?1388
 C2:99E8H         SYMBOL        L?1407
 C2:99EFH         SYMBOL        L?1473

  -------         PROC BANK=2   ANALISELINE
  -------         DO            
  X:1BCEH         SYMBOL        i
  X:1BD0H         SYMBOL        j
  X:1BD1H         SYMBOL        iN
  -------         ENDDO         
 C2:8EE7H         LINE#         634
 C2:8EE7H         LINE#         635
 C2:8EE7H         LINE#         648
 C2:8EE9H         LINE#         651
 C2:8EEEH         LINE#         684
 C2:8F05H         LINE#         685
 C2:8F05H         LINE#         686
BL51 BANKED LINKER/LOCATER V6.22            10/13/2015  11:10:35  PAGE 99


 C2:8F05H         LINE#         687
 C2:8F08H         LINE#         689
 C2:8F17H         LINE#         690
 C2:8F17H         LINE#         691
 C2:8F1CH         LINE#         692
 C2:8F1DH         LINE#         705
 C2:8F2CH         LINE#         706
 C2:8F2CH         LINE#         708
 C2:8F2CH         LINE#         712
 C2:8F2EH         LINE#         718
 C2:8F3DH         LINE#         719
 C2:8F3DH         LINE#         720
 C2:8F43H         LINE#         721
 C2:8F5EH         LINE#         722
 C2:8F61H         LINE#         724
 C2:8F64H         LINE#         725
 C2:8F65H         LINE#         727
 C2:8F74H         LINE#         728
 C2:8F74H         LINE#         729
 C2:8F7AH         LINE#         730
 C2:8F7BH         LINE#         737
 C2:8F8AH         LINE#         738
 C2:8F8AH         LINE#         739
 C2:8F8DH         LINE#         740
 C2:8F8FH         LINE#         742
 C2:8F9EH         LINE#         743
 C2:8F9EH         LINE#         744
 C2:8FA1H         LINE#         745
 C2:8FA3H         LINE#         747
 C2:8FB2H         LINE#         748
 C2:8FB2H         LINE#         749
 C2:8FB5H         LINE#         750
 C2:8FB7H         LINE#         769
 C2:8FC6H         LINE#         770
 C2:8FC6H         LINE#         771
 C2:8FCCH         LINE#         772
 C2:8FCDH         LINE#         774
 C2:8FDCH         LINE#         775
 C2:8FDCH         LINE#         776
 C2:8FE2H         LINE#         777
 C2:8FE3H         LINE#         789
 C2:8FEBH         LINE#         790
 C2:8FEBH         LINE#         791
 C2:8FF1H         LINE#         792
 C2:8FF2H         LINE#         794
 C2:8FF6H         LINE#         795
 C2:8FF6H         LINE#         796
 C2:8FFCH         LINE#         797
 C2:8FFDH         LINE#         799
 C2:9001H         LINE#         800
 C2:9001H         LINE#         801
 C2:9007H         LINE#         802
 C2:9008H         LINE#         804
 C2:9015H         LINE#         805
 C2:9015H         LINE#         806
 C2:901BH         LINE#         807
 C2:9031H         LINE#         808
 C2:9031H         LINE#         809
 C2:9036H         LINE#         810
 C2:9036H         LINE#         811
 C2:9039H         LINE#         812
 C2:903FH         LINE#         813
 C2:9042H         LINE#         814
 C2:9042H         LINE#         816
 C2:9045H         LINE#         817
BL51 BANKED LINKER/LOCATER V6.22            10/13/2015  11:10:35  PAGE 100


 C2:904AH         LINE#         818
 C2:904CH         LINE#         819
 C2:9056H         LINE#         820
 C2:9058H         LINE#         822
 C2:905BH         LINE#         823
 C2:9060H         LINE#         824
 C2:906AH         LINE#         826
 C2:9070H         LINE#         827
 C2:9073H         LINE#         828
 C2:9073H         LINE#         829
 C2:9074H         LINE#         834
 C2:9086H         LINE#         835
 C2:9086H         LINE#         836
 C2:908FH         LINE#         838
 C2:909AH         LINE#         839
 C2:909AH         LINE#         841
 C2:909EH         LINE#         842
 C2:909EH         LINE#         843
 C2:909EH         LINE#         844
 C2:90B8H         LINE#         845
 C2:90BEH         LINE#         846
 C2:90D6H         LINE#         847
 C2:90DFH         LINE#         849
 C2:90F0H         LINE#         851
 C2:90FBH         LINE#         852
 C2:90FBH         LINE#         853
 C2:9109H         LINE#         855
 C2:9117H         LINE#         857
 C2:912BH         LINE#         859
 C2:9139H         LINE#         861
 C2:9147H         LINE#         863
 C2:9155H         LINE#         865
 C2:9162H         LINE#         867
 C2:916FH         LINE#         869
 C2:917CH         LINE#         871
 C2:9189H         LINE#         873
 C2:9196H         LINE#         875
 C2:91A3H         LINE#         877
 C2:91B6H         LINE#         879
 C2:91BDH         LINE#         880
 C2:91BDH         LINE#         881
 C2:91C3H         LINE#         882
 C2:91C5H         LINE#         884
 C2:91C5H         LINE#         885
 C2:91CAH         LINE#         886
 C2:91CAH         LINE#         888
 C2:91D2H         LINE#         890
 C2:91D4H         LINE#         892
 C2:91D4H         LINE#         914
 C2:91D4H         LINE#         915
 C2:91D9H         LINE#         916
 C2:91D9H         LINE#         917
 C2:91D9H         LINE#         918
 C2:91DBH         LINE#         920
 C2:91DBH         LINE#         921
 C2:91E0H         LINE#         922
 C2:91E3H         LINE#         923
 C2:91E3H         LINE#         924
 C2:91EAH         LINE#         925
 C2:91EAH         LINE#         926
 C2:91F0H         LINE#         927
 C2:91F2H         LINE#         929
 C2:91F2H         LINE#         930
 C2:91F9H         LINE#         931
 C2:91F9H         LINE#         932
BL51 BANKED LINKER/LOCATER V6.22            10/13/2015  11:10:35  PAGE 101


 C2:91FFH         LINE#         933
 C2:91FFH         LINE#         934
 C2:9205H         LINE#         935
 C2:9206H         LINE#         937
 C2:9218H         LINE#         938
 C2:9218H         LINE#         941
 C2:921BH         LINE#         942
 C2:921BH         LINE#         943
 C2:9229H         LINE#         944
 C2:9232H         LINE#         945
 C2:9241H         LINE#         946
 C2:924BH         LINE#         947
 C2:9253H         LINE#         950
 C2:9266H         LINE#         952
 C2:9266H         LINE#         953
 C2:9277H         LINE#         954
 C2:9277H         LINE#         955
 C2:927AH         LINE#         956
 C2:927AH         LINE#         961
 C2:928BH         LINE#         965
 C2:9294H         LINE#         966
 C2:9294H         LINE#         967
 C2:9296H         LINE#         968
 C2:929DH         LINE#         969
 C2:929EH         LINE#         971
 C2:929EH         LINE#         972
 C2:92A1H         LINE#         973
 C2:92A8H         LINE#         974
 C2:92A8H         LINE#         975
 C2:92A9H         LINE#         980
 C2:92BBH         LINE#         981
 C2:92BBH         LINE#         985
 C2:92C9H         LINE#         986
 C2:92D1H         LINE#         988
 C2:92DEH         LINE#         989
 C2:92EAH         LINE#         992
 C2:92EDH         LINE#         993
 C2:92EDH         LINE#         994
 C2:9300H         LINE#         995
 C2:930FH         LINE#         996
 C2:9319H         LINE#         999
 C2:931CH         LINE#         1000
 C2:931CH         LINE#         1001
 C2:933CH         LINE#         1002
 C2:9345H         LINE#         1003
 C2:934DH         LINE#         1004
 C2:9357H         LINE#         1005
 C2:9363H         LINE#         1007
 C2:9381H         LINE#         1009
 C2:9381H         LINE#         1010
 C2:9392H         LINE#         1011
 C2:9392H         LINE#         1012
 C2:9395H         LINE#         1013
 C2:9395H         LINE#         1018
 C2:93B4H         LINE#         1021
 C2:93BEH         LINE#         1024
 C2:93C5H         LINE#         1026
 C2:93CBH         LINE#         1027
 C2:93CCH         LINE#         1029
 C2:93DBH         LINE#         1030
 C2:93DBH         LINE#         1031
 C2:93E1H         LINE#         1032
 C2:93F4H         LINE#         1033
 C2:9405H         LINE#         1034
 C2:941AH         LINE#         1035
BL51 BANKED LINKER/LOCATER V6.22            10/13/2015  11:10:35  PAGE 102


 C2:941BH         LINE#         1043
 C2:942AH         LINE#         1044
 C2:942AH         LINE#         1045
 C2:9430H         LINE#         1046
 C2:9443H         LINE#         1056
 C2:9452H         LINE#         1057
 C2:9452H         LINE#         1058
 C2:9458H         LINE#         1064
 C2:9468H         LINE#         1065
 C2:946EH         LINE#         1066
 C2:946FH         LINE#         1084
 C2:947EH         LINE#         1085
 C2:947EH         LINE#         1086
 C2:948DH         LINE#         1087
 C2:948DH         LINE#         1088
 C2:9495H         LINE#         1089
 C2:9495H         LINE#         1090
 C2:949FH         LINE#         1096
 C2:94AEH         LINE#         1097
 C2:94AEH         LINE#         1098
 C2:94BDH         LINE#         1099
 C2:94BDH         LINE#         1100
 C2:94C3H         LINE#         1101
 C2:94C3H         LINE#         1102
 C2:94CDH         LINE#         1103
 C2:94D5H         LINE#         1104
 C2:94E7H         LINE#         1105
 C2:94EDH         LINE#         1106
 C2:94EEH         LINE#         1108
 C2:94FDH         LINE#         1109
 C2:94FDH         LINE#         1111
 C2:9501H         LINE#         1112
 C2:9502H         LINE#         1114
 C2:9511H         LINE#         1115
 C2:9511H         LINE#         1116
 C2:9517H         LINE#         1117
 C2:951DH         LINE#         1118
 C2:951DH         LINE#         1120
 C2:952BH         LINE#         1121
 C2:952BH         LINE#         1122
 C2:952CH         LINE#         1124
 C2:953BH         LINE#         1125
 C2:953BH         LINE#         1126
 C2:9541H         LINE#         1127
 C2:9542H         LINE#         1129
 C2:9554H         LINE#         1130
 C2:9554H         LINE#         1131
 C2:955AH         LINE#         1132
 C2:955BH         LINE#         1141
 C2:9566H         LINE#         1143
 C2:9566H         LINE#         1144
 C2:956CH         LINE#         1146
 C2:9574H         LINE#         1147
 C2:9574H         LINE#         1148
 C2:957DH         LINE#         1149
 C2:9582H         LINE#         1150
 C2:9584H         LINE#         1152
 C2:959AH         LINE#         1154
 C2:959AH         LINE#         1157
 C2:95A8H         LINE#         1163
 C2:95B8H         LINE#         1164
 C2:95BAH         LINE#         1166
 C2:95BAH         LINE#         1167
 C2:95C6H         LINE#         1168
 C2:95C6H         LINE#         1170
BL51 BANKED LINKER/LOCATER V6.22            10/13/2015  11:10:35  PAGE 103


 C2:95D0H         LINE#         1171
 C2:95E5H         LINE#         1172
 C2:95F1H         LINE#         1173
 C2:95F7H         LINE#         1177
 C2:9620H         LINE#         1182
 C2:9632H         LINE#         1184
 C2:963AH         LINE#         1185
 C2:963AH         LINE#         1229
 C2:9643H         LINE#         1233
 C2:964BH         LINE#         1236
 C2:965BH         LINE#         1237
 C2:9661H         LINE#         1240
 C2:9669H         LINE#         1241
 C2:966FH         LINE#         1242
 C2:9670H         LINE#         1244
 C2:9670H         LINE#         1245
 C2:9676H         LINE#         1246
 C2:967FH         LINE#         1265
 C2:9684H         LINE#         1266
 C2:9689H         LINE#         1268
 C2:96A4H         LINE#         1269
 C2:96A4H         LINE#         1270
 C2:96BCH         LINE#         1271
 C2:96D2H         LINE#         1273
 C2:96D2H         LINE#         1275
 C2:96D4H         LINE#         1276
 C2:96D6H         LINE#         1278
 C2:96EAH         LINE#         1280
 C2:96EAH         LINE#         1282
 C2:96ECH         LINE#         1285
 C2:96FBH         LINE#         1286
 C2:96FDH         LINE#         1288
 C2:96FDH         LINE#         1290
 C2:9709H         LINE#         1291
 C2:9709H         LINE#         1292
 C2:9709H         LINE#         1294
 C2:9712H         LINE#         1296
 C2:9715H         LINE#         1298
 C2:9723H         LINE#         1299
 C2:972BH         LINE#         1300
 C2:9733H         LINE#         1301
 C2:973BH         LINE#         1303
 C2:9747H         LINE#         1305
 C2:9759H         LINE#         1306
 C2:9759H         LINE#         1307
 C2:976FH         LINE#         1308
 C2:9777H         LINE#         1309
 C2:9791H         LINE#         1310
 C2:9799H         LINE#         1311
 C2:979CH         LINE#         1312
 C2:97A5H         LINE#         1313
 C2:97CBH         LINE#         1314
 C2:97CEH         LINE#         1317
 C2:97D3H         LINE#         1318
 C2:97E7H         LINE#         1320
 C2:97FAH         LINE#         1322
 C2:980EH         LINE#         1324
 C2:9822H         LINE#         1326
 C2:9836H         LINE#         1328
 C2:984AH         LINE#         1330
 C2:985EH         LINE#         1332
 C2:9872H         LINE#         1334
 C2:9886H         LINE#         1336
 C2:989AH         LINE#         1338
 C2:98AEH         LINE#         1340
BL51 BANKED LINKER/LOCATER V6.22            10/13/2015  11:10:35  PAGE 104


 C2:98C2H         LINE#         1342
 C2:98D6H         LINE#         1344
 C2:98EAH         LINE#         1346
 C2:98FEH         LINE#         1348
 C2:9912H         LINE#         1350
 C2:9925H         LINE#         1352
 C2:992CH         LINE#         1353
 C2:992CH         LINE#         1354
 C2:992CH         LINE#         1355
 C2:993AH         LINE#         1356
 C2:9966H         LINE#         1357
 C2:9966H         LINE#         1359
 C2:9966H         LINE#         1360
 C2:996BH         LINE#         1361
 C2:996BH         LINE#         1362
 C2:996DH         LINE#         1363
 C2:9975H         LINE#         1364
 C2:997BH         LINE#         1365
 C2:997BH         LINE#         1366
 C2:997BH         LINE#         1367
  -------         ENDPROC       ANALISELINE

  -------         PROC BANK=2   _SEND_STR_SIM
  D:0028H         SYMBOL        pStr
  -------         DO            
  D:002AH         SYMBOL        i
  -------         ENDDO         
 C2:E754H         LINE#         1369
 C2:E758H         LINE#         1370
 C2:E758H         LINE#         1372
 C2:E75BH         LINE#         1373
 C2:E75BH         LINE#         1374
 C2:E76BH         LINE#         1375
 C2:E773H         LINE#         1376
 C2:E776H         LINE#         1377
 C2:E77AH         LINE#         1378
  -------         ENDPROC       _SEND_STR_SIM

  -------         PROC BANK=2   COMMAND_CPBS_SM
  -------         DO            
  C:588BH         SYMBOL        AA
  D:0028H         SYMBOL        i
  -------         ENDDO         
 C2:E79DH         LINE#         1434
 C2:E79DH         LINE#         1435
 C2:E79DH         LINE#         1438
 C2:E7A0H         LINE#         1439
 C2:E7A5H         LINE#         1440
 C2:E7BDH         LINE#         1441
  -------         ENDPROC       COMMAND_CPBS_SM

  -------         PROC BANK=2   COMMAND_CPMS_SM
  -------         DO            
  D:0028H         SYMBOL        i
  C:5898H         SYMBOL        AA
  -------         ENDDO         
 C2:E7BEH         LINE#         1444
 C2:E7BEH         LINE#         1445
 C2:E7BEH         LINE#         1450
 C2:E7C6H         LINE#         1451
 C2:E7DEH         LINE#         1452
  -------         ENDPROC       COMMAND_CPMS_SM

  -------         PROC BANK=2   COMMAND_ATS10
  -------         DO            
BL51 BANKED LINKER/LOCATER V6.22            10/13/2015  11:10:35  PAGE 105


  C:58B0H         SYMBOL        AA
  D:0028H         SYMBOL        i
  -------         ENDDO         
 C2:E7DFH         LINE#         1464
 C2:E7DFH         LINE#         1465
 C2:E7DFH         LINE#         1468
 C2:E7E2H         LINE#         1469
 C2:E7E7H         LINE#         1470
 C2:E7FFH         LINE#         1471
  -------         ENDPROC       COMMAND_ATS10

  -------         PROC BANK=2   COMMAND_ATS7
  -------         DO            
  C:58B9H         SYMBOL        AA
  D:0028H         SYMBOL        i
  -------         ENDDO         
 C2:E800H         LINE#         1472
 C2:E800H         LINE#         1473
 C2:E800H         LINE#         1476
 C2:E803H         LINE#         1477
 C2:E808H         LINE#         1478
 C2:E820H         LINE#         1479
  -------         ENDPROC       COMMAND_ATS7

  -------         PROC BANK=2   COMMAND_CNMI
  -------         DO            
  C:58C1H         SYMBOL        AA
  D:0028H         SYMBOL        i
  -------         ENDDO         
 C2:E821H         LINE#         1482
 C2:E821H         LINE#         1483
 C2:E821H         LINE#         1487
 C2:E824H         LINE#         1488
 C2:E829H         LINE#         1489
 C2:E841H         LINE#         1490
  -------         ENDPROC       COMMAND_CNMI

  -------         PROC BANK=2   COMMAND_CBST
  -------         DO            
  C:58D1H         SYMBOL        AA
  D:0028H         SYMBOL        i
  -------         ENDDO         
 C2:E842H         LINE#         1493
 C2:E842H         LINE#         1494
 C2:E842H         LINE#         1497
 C2:E845H         LINE#         1498
 C2:E84AH         LINE#         1499
 C2:E862H         LINE#         1500
  -------         ENDPROC       COMMAND_CBST

  -------         PROC BANK=2   _COMMAND_READ_TELDC_SIM
  D:0028H         SYMBOL        N
  -------         DO            
  C:58E0H         SYMBOL        AA
  D:0029H         SYMBOL        i
  D:002AH         SYMBOL        j
  X:1BD1H         SYMBOL        M
  -------         ENDDO         
 C2:E37CH         LINE#         1503
 C2:E37EH         LINE#         1504
 C2:E37EH         LINE#         1509
 C2:E381H         LINE#         1510
 C2:E386H         LINE#         1511
 C2:E39EH         LINE#         1513
 C2:E3ADH         LINE#         1514
BL51 BANKED LINKER/LOCATER V6.22            10/13/2015  11:10:35  PAGE 106


 C2:E3CAH         LINE#         1524
  -------         ENDPROC       _COMMAND_READ_TELDC_SIM

  -------         PROC BANK=2   COMMAND_READ_TELSC_SIM
  -------         DO            
  C:58E8H         SYMBOL        AA
  D:0028H         SYMBOL        i
  -------         ENDDO         
 C2:E863H         LINE#         1528
 C2:E863H         LINE#         1529
 C2:E863H         LINE#         1532
 C2:E866H         LINE#         1533
 C2:E86BH         LINE#         1534
 C2:E883H         LINE#         1535
  -------         ENDPROC       COMMAND_READ_TELSC_SIM

  -------         PROC BANK=2   COMMAND_GET_QUALITY_SIGNAL
  -------         DO            
  C:58F1H         SYMBOL        AA
  D:002AH         SYMBOL        i
  -------         ENDDO         
 C2:E884H         LINE#         1559
 C2:E884H         LINE#         1560
 C2:E884H         LINE#         1563
 C2:E887H         LINE#         1564
 C2:E88CH         LINE#         1565
 C2:E8A4H         LINE#         1566
  -------         ENDPROC       COMMAND_GET_QUALITY_SIGNAL

  -------         PROC BANK=2   COMMAND_TEST_NETWORK
  -------         DO            
  C:58F8H         SYMBOL        AA
  D:002AH         SYMBOL        i
  -------         ENDDO         
 C2:E8A5H         LINE#         1569
 C2:E8A5H         LINE#         1570
 C2:E8A5H         LINE#         1573
 C2:E8A8H         LINE#         1574
 C2:E8ADH         LINE#         1575
 C2:E8C5H         LINE#         1576
  -------         ENDPROC       COMMAND_TEST_NETWORK
  -------         PROC          COMMAND_NETWORK_REGISTRATION
  -------         DO            
  C:5901H         SYMBOL        AA
  D:002AH         SYMBOL        i
  -------         ENDDO         
 C2:E8C6H         LINE#         1579
 C2:E8C6H         LINE#         1580
 C2:E8C6H         LINE#         1584
 C2:E8C9H         LINE#         1585
 C2:E8CEH         LINE#         1586
 C2:E8E6H         LINE#         1588
  -------         ENDPROC       COMMAND_NETWORK_REGISTRATION

  -------         PROC BANK=2   COMMAND_GET_READ_SMS
  -------         DO            
  C:590AH         SYMBOL        AA
  D:0028H         SYMBOL        i
  -------         ENDDO         
 C2:E8E7H         LINE#         1603
 C2:E8E7H         LINE#         1604
 C2:E8E7H         LINE#         1607
 C2:E8EAH         LINE#         1608
 C2:E8EFH         LINE#         1609
 C2:E907H         LINE#         1610
BL51 BANKED LINKER/LOCATER V6.22            10/13/2015  11:10:35  PAGE 107


  -------         ENDPROC       COMMAND_GET_READ_SMS

  -------         PROC BANK=2   _COMMAND_DEL_SMS
  D:0028H         SYMBOL        N
  -------         DO            
  C:5914H         SYMBOL        AA
  D:0029H         SYMBOL        i
  -------         ENDDO         
 C2:E421H         LINE#         1613
 C2:E423H         LINE#         1614
 C2:E423H         LINE#         1617
 C2:E426H         LINE#         1618
 C2:E42BH         LINE#         1619
 C2:E443H         LINE#         1621
 C2:E457H         LINE#         1622
 C2:E464H         LINE#         1623
  -------         ENDPROC       _COMMAND_DEL_SMS

  -------         PROC BANK=2   COMMAND_ATAD1
  -------         DO            
  C:591CH         SYMBOL        AA
  D:0028H         SYMBOL        i
  -------         ENDDO         
 C2:E908H         LINE#         1677
 C2:E908H         LINE#         1678
 C2:E908H         LINE#         1681
 C2:E90BH         LINE#         1682
 C2:E910H         LINE#         1683
 C2:E928H         LINE#         1684
  -------         ENDPROC       COMMAND_ATAD1

  -------         PROC BANK=2   COMMAND_ATAS1
  -------         DO            
  C:5923H         SYMBOL        AA
  D:0028H         SYMBOL        i
  -------         ENDDO         
 C2:E929H         LINE#         1687
 C2:E929H         LINE#         1688
 C2:E929H         LINE#         1691
 C2:E92CH         LINE#         1692
 C2:E931H         LINE#         1693
 C2:E949H         LINE#         1694
  -------         ENDPROC       COMMAND_ATAS1

  -------         PROC BANK=2   COMMAND_3P
  -------         DO            
  C:592AH         SYMBOL        AA
  D:0028H         SYMBOL        i
  -------         ENDDO         
 C2:E94AH         LINE#         1696
 C2:E94AH         LINE#         1697
 C2:E94AH         LINE#         1700
 C2:E94DH         LINE#         1701
 C2:E952H         LINE#         1702
 C2:E96AH         LINE#         1703
  -------         ENDPROC       COMMAND_3P

  -------         PROC BANK=2   COMMAND_ATH
  -------         DO            
  C:592EH         SYMBOL        AA
  D:0028H         SYMBOL        i
  -------         ENDDO         
 C2:E96BH         LINE#         1704
 C2:E96BH         LINE#         1705
 C2:E96BH         LINE#         1708
BL51 BANKED LINKER/LOCATER V6.22            10/13/2015  11:10:35  PAGE 108


 C2:E96EH         LINE#         1709
 C2:E973H         LINE#         1710
 C2:E98BH         LINE#         1711
  -------         ENDPROC       COMMAND_ATH

  -------         PROC BANK=2   COMMAND_CHLD_1
  -------         DO            
  C:5932H         SYMBOL        AA
  D:0028H         SYMBOL        i
  -------         ENDDO         
 C2:E98CH         LINE#         1713
 C2:E98CH         LINE#         1714
 C2:E98CH         LINE#         1717
 C2:E98FH         LINE#         1718
 C2:E994H         LINE#         1719
 C2:E9ACH         LINE#         1720
  -------         ENDPROC       COMMAND_CHLD_1

  -------         PROC BANK=2   COMMAND_ATO
  -------         DO            
  C:593DH         SYMBOL        AA
  D:0028H         SYMBOL        i
  -------         ENDDO         
 C2:E9ADH         LINE#         1722
 C2:E9ADH         LINE#         1723
 C2:E9ADH         LINE#         1726
 C2:E9B0H         LINE#         1727
 C2:E9B5H         LINE#         1728
 C2:E9CDH         LINE#         1729
  -------         ENDPROC       COMMAND_ATO

  -------         PROC BANK=2   COMMAND_ATA
  -------         DO            
  C:5941H         SYMBOL        AA
  D:0028H         SYMBOL        i
  -------         ENDDO         
 C2:E9CEH         LINE#         1730
 C2:E9CEH         LINE#         1731
 C2:E9CEH         LINE#         1734
 C2:E9D1H         LINE#         1735
 C2:E9D6H         LINE#         1736
 C2:E9EEH         LINE#         1737
  -------         ENDPROC       COMMAND_ATA

  -------         PROC BANK=2   COMMAND_IDSIM
  -------         DO            
  C:5945H         SYMBOL        AA
  D:0028H         SYMBOL        i
  -------         ENDDO         
 C2:E9EFH         LINE#         1759
 C2:E9EFH         LINE#         1760
 C2:E9EFH         LINE#         1763
 C2:E9F2H         LINE#         1764
 C2:E9F7H         LINE#         1765
 C2:EA0FH         LINE#         1766
  -------         ENDPROC       COMMAND_IDSIM

  -------         PROC BANK=2   COMMAND_E2SMSRI
  -------         DO            
  C:594FH         SYMBOL        AA
  D:0028H         SYMBOL        i
  -------         ENDDO         
 C2:EA10H         LINE#         1769
 C2:EA10H         LINE#         1770
 C2:EA10H         LINE#         1773
BL51 BANKED LINKER/LOCATER V6.22            10/13/2015  11:10:35  PAGE 109


 C2:EA13H         LINE#         1774
 C2:EA18H         LINE#         1775
 C2:EA30H         LINE#         1776
  -------         ENDPROC       COMMAND_E2SMSRI

  -------         PROC BANK=2   COMMAND_E2IPS
  -------         DO            
  C:5960H         SYMBOL        AA
  D:0028H         SYMBOL        i
  -------         ENDDO         
 C2:EA31H         LINE#         1779
 C2:EA31H         LINE#         1780
 C2:EA31H         LINE#         1783
 C2:EA34H         LINE#         1784
 C2:EA39H         LINE#         1785
 C2:EA51H         LINE#         1786
  -------         ENDPROC       COMMAND_E2IPS

  -------         PROC BANK=2   COMMAND_CRC
  -------         DO            
  C:5975H         SYMBOL        AA
  D:0028H         SYMBOL        i
  -------         ENDDO         
 C2:EA52H         LINE#         1813
 C2:EA52H         LINE#         1814
 C2:EA52H         LINE#         1817
 C2:EA55H         LINE#         1818
 C2:EA5AH         LINE#         1819
 C2:EA72H         LINE#         1820
  -------         ENDPROC       COMMAND_CRC

  -------         PROC BANK=2   COMMAND_CLIP
  -------         DO            
  C:597FH         SYMBOL        AA
  D:0028H         SYMBOL        i
  -------         ENDDO         
 C2:EA73H         LINE#         1822
 C2:EA73H         LINE#         1823
 C2:EA73H         LINE#         1826
 C2:EA76H         LINE#         1827
 C2:EA7BH         LINE#         1828
 C2:EA93H         LINE#         1829
  -------         ENDPROC       COMMAND_CLIP
 C2:E2C8H         SYMBOL        L?1474

  -------         PROC BANK=2   COMMAND_CGDCONT
  -------         DO            
  C:598AH         SYMBOL        AA
  D:0028H         SYMBOL        i
  D:0029H         SYMBOL        pAddr
  -------         ENDDO         
 C2:E27BH         LINE#         1842
 C2:E27BH         LINE#         1843
 C2:E27BH         LINE#         1847
 C2:E281H         LINE#         1849
 C2:E289H         LINE#         1850
 C2:E29BH         LINE#         1852
 C2:E29EH         LINE#         1853
 C2:E29EH         LINE#         1854
 C2:E2AEH         LINE#         1855
 C2:E2B2H         LINE#         1856
 C2:E2B9H         LINE#         1857
 C2:E2C2H         LINE#         1858
 C2:E2C8H         LINE#         1859
  -------         ENDPROC       COMMAND_CGDCONT
BL51 BANKED LINKER/LOCATER V6.22            10/13/2015  11:10:35  PAGE 110


 C2:DB80H         SYMBOL        L?1298
 C2:DB96H         SYMBOL        L?1389

  -------         PROC BANK=2   COMMAND_ENAD1
  -------         DO            
  C:599EH         SYMBOL        AA
  D:0028H         SYMBOL        i
  D:0029H         SYMBOL        pAddr1
  D:002BH         SYMBOL        pAddr2
  -------         ENDDO         
 C2:DAF6H         LINE#         1862
 C2:DAF6H         LINE#         1863
 C2:DAF6H         LINE#         1867
 C2:DAFCH         LINE#         1868
 C2:DB02H         LINE#         1869
 C2:DB0AH         LINE#         1871
 C2:DB22H         LINE#         1873
 C2:DB25H         LINE#         1874
 C2:DB25H         LINE#         1875
 C2:DB35H         LINE#         1876
 C2:DB35H         LINE#         1877
 C2:DB3CH         LINE#         1878
 C2:DB3CH         LINE#         1879
 C2:DB3CH         LINE#         1880
 C2:DB45H         LINE#         1881
 C2:DB48H         LINE#         1882
 C2:DB48H         LINE#         1883
 C2:DB58H         LINE#         1884
 C2:DB58H         LINE#         1885
 C2:DB5FH         LINE#         1886
 C2:DB5FH         LINE#         1887
 C2:DB5FH         LINE#         1888
 C2:DB68H         LINE#         1889
 C2:DB71H         LINE#         1890
 C2:DB7AH         LINE#         1891
 C2:DB80H         LINE#         1892
  -------         ENDPROC       COMMAND_ENAD1

  -------         PROC BANK=2   COMMAND_CGCEREP
  -------         DO            
  C:59B2H         SYMBOL        AA
  D:0028H         SYMBOL        i
  -------         ENDDO         
 C2:EA94H         LINE#         1901
 C2:EA94H         LINE#         1902
 C2:EA94H         LINE#         1905
 C2:EA9CH         LINE#         1906
 C2:EAB4H         LINE#         1907
  -------         ENDPROC       COMMAND_CGCEREP

  -------         PROC BANK=2   COMMAND_E2IPA
  -------         DO            
  C:59BFH         SYMBOL        AA
  D:0028H         SYMBOL        i
  -------         ENDDO         
 C2:EAB5H         LINE#         1908
 C2:EAB5H         LINE#         1909
 C2:EAB5H         LINE#         1912
 C2:EABDH         LINE#         1913
 C2:EAD5H         LINE#         1914
  -------         ENDPROC       COMMAND_E2IPA
 C2:D0FBH         SYMBOL        L?1283
 C2:D111H         SYMBOL        L?1299
 C2:D124H         SYMBOL        L?1352
 C2:D134H         SYMBOL        L?1354
BL51 BANKED LINKER/LOCATER V6.22            10/13/2015  11:10:35  PAGE 111


 C2:D147H         SYMBOL        L?1449

  -------         PROC BANK=2   COMMAND_E2IPO
  -------         DO            
  C:59CDH         SYMBOL        AA
  D:0028H         SYMBOL        i
  D:0029H         SYMBOL        j
  D:002AH         SYMBOL        pAddr
  D:002CH         SYMBOL        pPort
  X:1BCEH         SYMBOL        M
  -------         ENDDO         
 C2:D02BH         LINE#         1931
 C2:D02BH         LINE#         1932
 C2:D02BH         LINE#         1935
 C2:D031H         LINE#         1936
 C2:D037H         LINE#         1938
 C2:D03FH         LINE#         1939
 C2:D057H         LINE#         1941
 C2:D05EH         LINE#         1942
 C2:D06DH         LINE#         1943
 C2:D06DH         LINE#         1944
 C2:D072H         LINE#         1945
 C2:D081H         LINE#         1946
 C2:D081H         LINE#         1947
 C2:D086H         LINE#         1948
 C2:D09AH         LINE#         1949
 C2:D09FH         LINE#         1950
 C2:D0A7H         LINE#         1951
 C2:D0BBH         LINE#         1953
 C2:D0C0H         LINE#         1954
 C2:D0C9H         LINE#         1955
 C2:D0E1H         LINE#         1956
 C2:D0F5H         LINE#         1958
 C2:D0FBH         LINE#         1959
  -------         ENDPROC       COMMAND_E2IPO

  -------         PROC BANK=2   COMMAND_CGSMS
  -------         DO            
  C:59DAH         SYMBOL        AA
  D:0028H         SYMBOL        i
  -------         ENDDO         
 C2:EAD6H         LINE#         1964
 C2:EAD6H         LINE#         1965
 C2:EAD6H         LINE#         1968
 C2:EADEH         LINE#         1969
 C2:EAF6H         LINE#         1970
  -------         ENDPROC       COMMAND_CGSMS

  -------         PROC BANK=2   ANALISE_TEL_NUM
  -------         DO            
  X:1BC6H         SYMBOL        i
  X:1BC7H         SYMBOL        j
  X:1BC8H         SYMBOL        n
  -------         ENDDO         
 C2:DEACH         LINE#         1991
 C2:DEACH         LINE#         1992
 C2:DEACH         LINE#         1997
 C2:DEDAH         LINE#         1999
 C2:DEE0H         LINE#         2000
 C2:DEE0H         LINE#         2002
 C2:DEF0H         LINE#         2003
 C2:DEF7H         LINE#         2004
 C2:DEF7H         LINE#         2005
 C2:DF07H         LINE#         2006
 C2:DF26H         LINE#         2007
BL51 BANKED LINKER/LOCATER V6.22            10/13/2015  11:10:35  PAGE 112


 C2:DF2FH         LINE#         2008
 C2:DF31H         LINE#         2009
 C2:DF31H         LINE#         2010
  -------         ENDPROC       ANALISE_TEL_NUM
 C2:A19BH         SYMBOL        L?1217
 C2:A1A7H         SYMBOL        L?1218
 C2:A1B3H         SYMBOL        L?1219
 C2:A1BFH         SYMBOL        L?1220
 C2:A1CBH         SYMBOL        L?1221
 C2:A1D7H         SYMBOL        L?1222
 C2:A1E3H         SYMBOL        L?1226
 C2:A1EFH         SYMBOL        L?1231
 C2:A1FBH         SYMBOL        L?1236

  -------         PROC BANK=2   AUTOMAT_INITSIM
  -------         DO            
  X:1BCEH         SYMBOL        i
  X:1BCFH         SYMBOL        j
  X:1BD0H         SYMBOL        n
  -------         ENDDO         
 C2:99F6H         LINE#         2053
 C2:99F6H         LINE#         2054
 C2:99F6H         LINE#         2059
 C2:9A97H         LINE#         2060
 C2:9A97H         LINE#         2061
 C2:9A97H         LINE#         2062
 C2:9A9AH         LINE#         2063
 C2:9A9DH         LINE#         2065
 C2:9AA0H         LINE#         2066
 C2:9AA9H         LINE#         2067
 C2:9AAFH         LINE#         2068
 C2:9AB4H         LINE#         2069
 C2:9AB7H         LINE#         2074
 C2:9AB7H         LINE#         2075
 C2:9ABFH         LINE#         2076
 C2:9ABFH         LINE#         2077
 C2:9ABFH         LINE#         2078
 C2:9AC6H         LINE#         2079
 C2:9AC6H         LINE#         2080
 C2:9AC7H         LINE#         2081
 C2:9ACAH         LINE#         2082
 C2:9ACBH         LINE#         2083
 C2:9ACBH         LINE#         2084
 C2:9ACFH         LINE#         2085
 C2:9AD5H         LINE#         2086
 C2:9AD5H         LINE#         2087
 C2:9AD8H         LINE#         2089
 C2:9AD8H         LINE#         2090
 C2:9ADFH         LINE#         2091
 C2:9ADFH         LINE#         2093
 C2:9AE6H         LINE#         2094
 C2:9AECH         LINE#         2095
 C2:9AF2H         LINE#         2096
 C2:9AF2H         LINE#         2097
 C2:9AFEH         LINE#         2098
 C2:9AFEH         LINE#         2099
 C2:9B03H         LINE#         2100
 C2:9B03H         LINE#         2101
 C2:9B0BH         LINE#         2102
 C2:9B0BH         LINE#         2103
 C2:9B11H         LINE#         2104
 C2:9B16H         LINE#         2105
 C2:9B1BH         LINE#         2106
 C2:9B1EH         LINE#         2107
 C2:9B1EH         LINE#         2108
BL51 BANKED LINKER/LOCATER V6.22            10/13/2015  11:10:35  PAGE 113


 C2:9B1EH         LINE#         2109
 C2:9B29H         LINE#         2110
 C2:9B2CH         LINE#         2115
 C2:9B2CH         LINE#         2116
 C2:9B34H         LINE#         2117
 C2:9B34H         LINE#         2118
 C2:9B38H         LINE#         2119
 C2:9B3EH         LINE#         2120
 C2:9B3EH         LINE#         2121
 C2:9B41H         LINE#         2123
 C2:9B41H         LINE#         2124
 C2:9B48H         LINE#         2125
 C2:9B48H         LINE#         2127
 C2:9B4BH         LINE#         2128
 C2:9B52H         LINE#         2129
 C2:9B58H         LINE#         2130
 C2:9B58H         LINE#         2131
 C2:9B64H         LINE#         2132
 C2:9B64H         LINE#         2133
 C2:9B73H         LINE#         2134
 C2:9B79H         LINE#         2135
 C2:9B79H         LINE#         2136
 C2:9B84H         LINE#         2137
 C2:9B87H         LINE#         2142
 C2:9B87H         LINE#         2143
 C2:9B8FH         LINE#         2144
 C2:9B8FH         LINE#         2145
 C2:9B98H         LINE#         2146
 C2:9B98H         LINE#         2147
 C2:9B9BH         LINE#         2149
 C2:9B9BH         LINE#         2150
 C2:9BA4H         LINE#         2151
 C2:9BA4H         LINE#         2152
 C2:9BAAH         LINE#         2153
 C2:9BAAH         LINE#         2154
 C2:9BB2H         LINE#         2155
 C2:9BBAH         LINE#         2156
 C2:9BBAH         LINE#         2157
 C2:9BBAH         LINE#         2158
 C2:9BBAH         LINE#         2159
 C2:9BBDH         LINE#         2163
 C2:9BBDH         LINE#         2164
 C2:9BC6H         LINE#         2165
 C2:9BC9H         LINE#         2166
 C2:9BC9H         LINE#         2167
 C2:9BD2H         LINE#         2168
 C2:9BD2H         LINE#         2169
 C2:9BD8H         LINE#         2170
 C2:9BD8H         LINE#         2171
 C2:9BE0H         LINE#         2172
 C2:9BE8H         LINE#         2173
 C2:9BE8H         LINE#         2174
 C2:9BE8H         LINE#         2175
 C2:9BE8H         LINE#         2176
 C2:9BEBH         LINE#         2181
 C2:9BEBH         LINE#         2182
 C2:9BF3H         LINE#         2183
 C2:9BFCH         LINE#         2184
 C2:9BFFH         LINE#         2186
 C2:9BFFH         LINE#         2187
 C2:9C06H         LINE#         2188
 C2:9C06H         LINE#         2190
 C2:9C0CH         LINE#         2191
 C2:9C0CH         LINE#         2192
 C2:9C18H         LINE#         2193
BL51 BANKED LINKER/LOCATER V6.22            10/13/2015  11:10:35  PAGE 114


 C2:9C18H         LINE#         2194
 C2:9C1DH         LINE#         2195
 C2:9C1DH         LINE#         2196
 C2:9C25H         LINE#         2197
 C2:9C25H         LINE#         2199
 C2:9C28H         LINE#         2200
 C2:9C28H         LINE#         2201
 C2:9C28H         LINE#         2202
 C2:9C33H         LINE#         2203
 C2:9C36H         LINE#         2208
 C2:9C36H         LINE#         2209
 C2:9C3EH         LINE#         2210
 C2:9C47H         LINE#         2211
 C2:9C4AH         LINE#         2213
 C2:9C4AH         LINE#         2214
 C2:9C51H         LINE#         2215
 C2:9C51H         LINE#         2216
 C2:9C57H         LINE#         2217
 C2:9C57H         LINE#         2218
 C2:9C63H         LINE#         2219
 C2:9C63H         LINE#         2220
 C2:9C68H         LINE#         2221
 C2:9C68H         LINE#         2222
 C2:9C70H         LINE#         2223
 C2:9C70H         LINE#         2224
 C2:9C73H         LINE#         2225
 C2:9C73H         LINE#         2226
 C2:9C73H         LINE#         2227
 C2:9C7EH         LINE#         2228
 C2:9C81H         LINE#         2233
 C2:9C81H         LINE#         2234
 C2:9C8AH         LINE#         2235
 C2:9C8DH         LINE#         2237
 C2:9C8DH         LINE#         2238
 C2:9C95H         LINE#         2239
 C2:9C95H         LINE#         2240
 C2:9C9BH         LINE#         2241
 C2:9C9BH         LINE#         2242
 C2:9CA3H         LINE#         2243
 C2:9CABH         LINE#         2244
 C2:9CABH         LINE#         2245
 C2:9CABH         LINE#         2246
 C2:9CABH         LINE#         2247
 C2:9CAEH         LINE#         2252
 C2:9CAEH         LINE#         2253
 C2:9CB7H         LINE#         2254
 C2:9CBAH         LINE#         2256
 C2:9CBAH         LINE#         2257
 C2:9CC1H         LINE#         2258
 C2:9CC1H         LINE#         2259
 C2:9CC7H         LINE#         2260
 C2:9CC7H         LINE#         2261
 C2:9CD3H         LINE#         2262
 C2:9CD3H         LINE#         2263
 C2:9CD9H         LINE#         2264
 C2:9CD9H         LINE#         2265
 C2:9CE4H         LINE#         2266
 C2:9CE7H         LINE#         2271
 C2:9CE7H         LINE#         2272
 C2:9CEFH         LINE#         2273
 C2:9CEFH         LINE#         2274
 C2:9CF6H         LINE#         2275
 C2:9CFCH         LINE#         2276
 C2:9CFCH         LINE#         2277
 C2:9CFFH         LINE#         2279
BL51 BANKED LINKER/LOCATER V6.22            10/13/2015  11:10:35  PAGE 115


 C2:9CFFH         LINE#         2280
 C2:9D06H         LINE#         2281
 C2:9D06H         LINE#         2282
 C2:9D06H         LINE#         2283
 C2:9D0CH         LINE#         2284
 C2:9D0CH         LINE#         2285
 C2:9D18H         LINE#         2286
 C2:9D18H         LINE#         2287
 C2:9D1EH         LINE#         2288
 C2:9D1EH         LINE#         2289
 C2:9D29H         LINE#         2290
 C2:9D2CH         LINE#         2295
 C2:9D2CH         LINE#         2297
 C2:9D2CH         LINE#         2298
 C2:9D2FH         LINE#         2299
 C2:9D35H         LINE#         2300
 C2:9D35H         LINE#         2301
 C2:9D38H         LINE#         2302
 C2:9D38H         LINE#         2303
 C2:9D3FH         LINE#         2304
 C2:9D3FH         LINE#         2305
 C2:9D3FH         LINE#         2306
 C2:9D45H         LINE#         2307
 C2:9D45H         LINE#         2308
 C2:9D51H         LINE#         2309
 C2:9D51H         LINE#         2310
 C2:9D57H         LINE#         2311
 C2:9D57H         LINE#         2312
 C2:9D62H         LINE#         2313
 C2:9D65H         LINE#         2318
 C2:9D65H         LINE#         2320
 C2:9D65H         LINE#         2321
 C2:9D68H         LINE#         2322
 C2:9D6EH         LINE#         2323
 C2:9D6EH         LINE#         2324
 C2:9D71H         LINE#         2325
 C2:9D71H         LINE#         2326
 C2:9D78H         LINE#         2327
 C2:9D78H         LINE#         2328
 C2:9D78H         LINE#         2329
 C2:9D7EH         LINE#         2330
 C2:9D7EH         LINE#         2331
 C2:9D8AH         LINE#         2332
 C2:9D8AH         LINE#         2333
 C2:9D90H         LINE#         2334
 C2:9D90H         LINE#         2335
 C2:9D9BH         LINE#         2336
 C2:9D9EH         LINE#         2341
 C2:9D9EH         LINE#         2342
 C2:9DA1H         LINE#         2343
 C2:9DA7H         LINE#         2344
 C2:9DAAH         LINE#         2345
 C2:9DAAH         LINE#         2346
 C2:9DB1H         LINE#         2347
 C2:9DB1H         LINE#         2348
 C2:9DB1H         LINE#         2349
 C2:9DB7H         LINE#         2350
 C2:9DB7H         LINE#         2351
 C2:9DBFH         LINE#         2352
 C2:9DC7H         LINE#         2353
 C2:9DC7H         LINE#         2354
 C2:9DC7H         LINE#         2355
 C2:9DC7H         LINE#         2356
 C2:9DCAH         LINE#         2358
 C2:9DCAH         LINE#         2359
BL51 BANKED LINKER/LOCATER V6.22            10/13/2015  11:10:35  PAGE 116


 C2:9DCDH         LINE#         2360
 C2:9DD3H         LINE#         2361
 C2:9DD6H         LINE#         2362
 C2:9DD6H         LINE#         2363
 C2:9DDDH         LINE#         2364
 C2:9DDDH         LINE#         2365
 C2:9DDDH         LINE#         2366
 C2:9DE3H         LINE#         2367
 C2:9DE3H         LINE#         2368
 C2:9DEBH         LINE#         2369
 C2:9DF3H         LINE#         2370
 C2:9DF3H         LINE#         2371
 C2:9DF3H         LINE#         2372
 C2:9DF3H         LINE#         2373
 C2:9DF6H         LINE#         2378
 C2:9DF6H         LINE#         2379
 C2:9DFFH         LINE#         2380
 C2:9E02H         LINE#         2381
 C2:9E02H         LINE#         2382
 C2:9E0CH         LINE#         2383
 C2:9E0CH         LINE#         2384
 C2:9E12H         LINE#         2385
 C2:9E12H         LINE#         2386
 C2:9E1DH         LINE#         2387
 C2:9E20H         LINE#         2391
 C2:9E20H         LINE#         2392
 C2:9E29H         LINE#         2393
 C2:9E2CH         LINE#         2394
 C2:9E2CH         LINE#         2395
 C2:9E36H         LINE#         2396
 C2:9E36H         LINE#         2397
 C2:9E3CH         LINE#         2398
 C2:9E3CH         LINE#         2399
 C2:9E47H         LINE#         2400
 C2:9E4AH         LINE#         2404
 C2:9E4AH         LINE#         2405
 C2:9E53H         LINE#         2406
 C2:9E56H         LINE#         2407
 C2:9E56H         LINE#         2408
 C2:9E5DH         LINE#         2409
 C2:9E5DH         LINE#         2410
 C2:9E63H         LINE#         2411
 C2:9E63H         LINE#         2412
 C2:9E6BH         LINE#         2413
 C2:9E73H         LINE#         2414
 C2:9E73H         LINE#         2415
 C2:9E73H         LINE#         2416
 C2:9E73H         LINE#         2417
 C2:9E76H         LINE#         2421
 C2:9E76H         LINE#         2422
 C2:9E7FH         LINE#         2423
 C2:9E82H         LINE#         2424
 C2:9E82H         LINE#         2425
 C2:9E89H         LINE#         2426
 C2:9E89H         LINE#         2427
 C2:9E8FH         LINE#         2428
 C2:9E8FH         LINE#         2429
 C2:9E97H         LINE#         2430
 C2:9E9FH         LINE#         2431
 C2:9E9FH         LINE#         2432
 C2:9E9FH         LINE#         2433
 C2:9E9FH         LINE#         2434
 C2:9EA2H         LINE#         2438
 C2:9EA2H         LINE#         2439
 C2:9EABH         LINE#         2440
BL51 BANKED LINKER/LOCATER V6.22            10/13/2015  11:10:35  PAGE 117


 C2:9EAEH         LINE#         2441
 C2:9EAEH         LINE#         2442
 C2:9EB5H         LINE#         2443
 C2:9EB5H         LINE#         2444
 C2:9EBBH         LINE#         2445
 C2:9EBBH         LINE#         2446
 C2:9EC3H         LINE#         2447
 C2:9ECBH         LINE#         2448
 C2:9ECBH         LINE#         2449
 C2:9ECBH         LINE#         2450
 C2:9ECBH         LINE#         2451
 C2:9ECEH         LINE#         2455
 C2:9ECEH         LINE#         2456
 C2:9ED7H         LINE#         2457
 C2:9EDAH         LINE#         2458
 C2:9EDAH         LINE#         2459
 C2:9EE2H         LINE#         2460
 C2:9EE2H         LINE#         2461
 C2:9EE8H         LINE#         2462
 C2:9EE8H         LINE#         2463
 C2:9EF0H         LINE#         2464
 C2:9EF8H         LINE#         2465
 C2:9EF8H         LINE#         2466
 C2:9EF8H         LINE#         2467
 C2:9EF8H         LINE#         2468
 C2:9EFBH         LINE#         2469
 C2:9EFBH         LINE#         2470
 C2:9F08H         LINE#         2471
 C2:9F08H         LINE#         2472
 C2:9F11H         LINE#         2473
 C2:9F11H         LINE#         2474
 C2:9F14H         LINE#         2478
 C2:9F14H         LINE#         2479
 C2:9F1DH         LINE#         2480
 C2:9F20H         LINE#         2481
 C2:9F20H         LINE#         2482
 C2:9F28H         LINE#         2483
 C2:9F28H         LINE#         2484
 C2:9F2EH         LINE#         2485
 C2:9F2EH         LINE#         2486
 C2:9F38H         LINE#         2487
 C2:9F38H         LINE#         2488
 C2:9F3EH         LINE#         2489
 C2:9F3EH         LINE#         2490
 C2:9F49H         LINE#         2491
 C2:9F4CH         LINE#         2493
 C2:9F4CH         LINE#         2494
 C2:9F55H         LINE#         2495
 C2:9F58H         LINE#         2496
 C2:9F58H         LINE#         2497
 C2:9F60H         LINE#         2498
 C2:9F60H         LINE#         2499
 C2:9F66H         LINE#         2500
 C2:9F66H         LINE#         2501
 C2:9F70H         LINE#         2502
 C2:9F70H         LINE#         2503
 C2:9F76H         LINE#         2504
 C2:9F76H         LINE#         2505
 C2:9F81H         LINE#         2506
 C2:9F84H         LINE#         2527
 C2:9F84H         LINE#         2528
 C2:9F87H         LINE#         2529
 C2:9F87H         LINE#         2530
 C2:9F8CH         LINE#         2531
 C2:9F8EH         LINE#         2532
BL51 BANKED LINKER/LOCATER V6.22            10/13/2015  11:10:35  PAGE 118


 C2:9F90H         LINE#         2533
 C2:9F90H         LINE#         2534
 C2:9F93H         LINE#         2535
 C2:9F93H         LINE#         2536
 C2:9F96H         LINE#         2537
 C2:9F9CH         LINE#         2538
 C2:9F9FH         LINE#         2540
 C2:9F9FH         LINE#         2541
 C2:9FA6H         LINE#         2542
 C2:9FA6H         LINE#         2543
 C2:9FACH         LINE#         2544
 C2:9FB1H         LINE#         2545
 C2:9FBCH         LINE#         2546
 C2:9FBCH         LINE#         2547
 C2:9FC3H         LINE#         2548
 C2:9FC3H         LINE#         2549
 C2:9FCEH         LINE#         2550
 C2:9FCEH         LINE#         2551
 C2:9FD0H         LINE#         2552
 C2:9FD2H         LINE#         2553
 C2:9FDAH         LINE#         2554
 C2:9FDAH         LINE#         2555
 C2:9FDDH         LINE#         2556
 C2:9FDDH         LINE#         2557
 C2:9FE5H         LINE#         2558
 C2:9FE5H         LINE#         2559
 C2:9FEDH         LINE#         2560
 C2:9FF5H         LINE#         2561
 C2:9FF5H         LINE#         2562
 C2:9FF5H         LINE#         2563
 C2:9FF5H         LINE#         2564
 C2:9FF8H         LINE#         2569
 C2:9FF8H         LINE#         2570
 C2:A007H         LINE#         2571
 C2:A007H         LINE#         2573
 C2:A012H         LINE#         2574
 C2:A015H         LINE#         2575
 C2:A01BH         LINE#         2576
 C2:A01BH         LINE#         2577
 C2:A01EH         LINE#         2579
 C2:A01EH         LINE#         2580
 C2:A027H         LINE#         2581
 C2:A027H         LINE#         2582
 C2:A02EH         LINE#         2584
 C2:A037H         LINE#         2585
 C2:A03FH         LINE#         2587
 C2:A04CH         LINE#         2589
 C2:A058H         LINE#         2590
 C2:A058H         LINE#         2591
 C2:A058H         LINE#         2592
 C2:A063H         LINE#         2593
 C2:A063H         LINE#         2594
 C2:A065H         LINE#         2595
 C2:A065H         LINE#         2596
 C2:A069H         LINE#         2597
 C2:A069H         LINE#         2598
 C2:A06EH         LINE#         2599
 C2:A06EH         LINE#         2600
 C2:A07BH         LINE#         2601
 C2:A07EH         LINE#         2602
 C2:A083H         LINE#         2603
 C2:A083H         LINE#         2604
 C2:A08BH         LINE#         2605
 C2:A08BH         LINE#         2606
 C2:A096H         LINE#         2607
BL51 BANKED LINKER/LOCATER V6.22            10/13/2015  11:10:35  PAGE 119


 C2:A096H         LINE#         2608
 C2:A098H         LINE#         2609
 C2:A09EH         LINE#         2610
 C2:A0A1H         LINE#         2611
 C2:A0B2H         LINE#         2612
 C2:A0B5H         LINE#         2613
 C2:A0B7H         LINE#         2614
 C2:A0B7H         LINE#         2616
 C2:A0B7H         LINE#         2617
 C2:A0BDH         LINE#         2618
 C2:A0BDH         LINE#         2619
 C2:A0BDH         LINE#         2620
 C2:A0C5H         LINE#         2621
 C2:A0CDH         LINE#         2622
 C2:A0CDH         LINE#         2623
 C2:A0D2H         LINE#         2624
 C2:A0D2H         LINE#         2625
 C2:A0D5H         LINE#         2628
 C2:A0D5H         LINE#         2630
 C2:A0EAH         LINE#         2631
 C2:A10CH         LINE#         2633
 C2:A112H         LINE#         2634
 C2:A112H         LINE#         2636
 C2:A122H         LINE#         2637
 C2:A130H         LINE#         2638
 C2:A130H         LINE#         2639
 C2:A13DH         LINE#         2640
 C2:A15CH         LINE#         2641
 C2:A165H         LINE#         2651
 C2:A16CH         LINE#         2652
 C2:A16EH         LINE#         2654
 C2:A16EH         LINE#         2655
 C2:A174H         LINE#         2656
 C2:A176H         LINE#         2657
 C2:A178H         LINE#         2658
 C2:A17EH         LINE#         2659
 C2:A180H         LINE#         2660
 C2:A180H         LINE#         2673
 C2:A182H         LINE#         2674
 C2:A184H         LINE#         2676
 C2:A18AH         LINE#         2677
 C2:A18CH         LINE#         2680
 C2:A18CH         LINE#         2682
 C2:A193H         LINE#         2683
 C2:A193H         LINE#         2685
 C2:A193H         LINE#         2686
 C2:A199H         LINE#         2687
 C2:A199H         LINE#         2688
 C2:A199H         LINE#         2689
 C2:A19AH         LINE#         2690
  -------         ENDPROC       AUTOMAT_INITSIM

  -------         PROC BANK=2   AUTOMAT_PERSIMWORK
  -------         DO            
  D:0007H         SYMBOL        i
  D:0028H         SYMBOL        pAddr
  -------         ENDDO         
 C2:C9A3H         LINE#         2695
 C2:C9A3H         LINE#         2696
 C2:C9A3H         LINE#         2698
 C2:C9A9H         LINE#         2700
 C2:C9B4H         LINE#         2701
 C2:C9B4H         LINE#         2702
 C2:C9B7H         LINE#         2703
 C2:C9B7H         LINE#         2704
BL51 BANKED LINKER/LOCATER V6.22            10/13/2015  11:10:35  PAGE 120


 C2:C9B9H         LINE#         2705
 C2:C9B9H         LINE#         2706
 C2:C9BCH         LINE#         2707
 C2:C9BDH         LINE#         2709
 C2:C9C4H         LINE#         2711
 C2:C9C4H         LINE#         2713
 C2:C9CAH         LINE#         2715
 C2:C9CAH         LINE#         2716
 C2:C9CEH         LINE#         2718
 C2:C9D2H         LINE#         2720
 C2:C9D2H         LINE#         2723
 C2:C9DAH         LINE#         2725
 C2:CA03H         LINE#         2726
 C2:CA03H         LINE#         2727
 C2:CA03H         LINE#         2728
 C2:CA08H         LINE#         2731
 C2:CA08H         LINE#         2732
 C2:CA0BH         LINE#         2733
 C2:CA11H         LINE#         2734
 C2:CA17H         LINE#         2735
 C2:CA18H         LINE#         2737
 C2:CA18H         LINE#         2738
 C2:CA20H         LINE#         2739
 C2:CA20H         LINE#         2740
 C2:CA23H         LINE#         2741
 C2:CA29H         LINE#         2742
 C2:CA2FH         LINE#         2743
 C2:CA2FH         LINE#         2744
 C2:CA30H         LINE#         2746
 C2:CA30H         LINE#         2747
 C2:CA38H         LINE#         2748
 C2:CA38H         LINE#         2749
 C2:CA3BH         LINE#         2750
 C2:CA41H         LINE#         2751
 C2:CA41H         LINE#         2752
 C2:CA41H         LINE#         2753
 C2:CA44H         LINE#         2755
 C2:CA44H         LINE#         2757
 C2:CA53H         LINE#         2758
 C2:CA62H         LINE#         2759
 C2:CA68H         LINE#         2760
 C2:CA6EH         LINE#         2762
 C2:CA71H         LINE#         2763
 C2:CA71H         LINE#         2764
 C2:CA79H         LINE#         2765
 C2:CA79H         LINE#         2766
 C2:CA82H         LINE#         2767
 C2:CA84H         LINE#         2769
 C2:CA84H         LINE#         2770
 C2:CA87H         LINE#         2771
 C2:CA87H         LINE#         2772
 C2:CA8DH         LINE#         2773
 C2:CA8DH         LINE#         2775
 C2:CA98H         LINE#         2776
 C2:CA99H         LINE#         2778
 C2:CA99H         LINE#         2779
 C2:CAA1H         LINE#         2780
 C2:CAA7H         LINE#         2781
 C2:CAADH         LINE#         2782
 C2:CAAEH         LINE#         2784
 C2:CAAEH         LINE#         2785
 C2:CAB4H         LINE#         2786
 C2:CAB4H         LINE#         2791
 C2:CABDH         LINE#         2793
 C2:CACDH         LINE#         2795
BL51 BANKED LINKER/LOCATER V6.22            10/13/2015  11:10:35  PAGE 121


 C2:CADDH         LINE#         2797
 C2:CAE0H         LINE#         2798
 C2:CAE0H         LINE#         2799
 C2:CAE1H         LINE#         2805
 C2:CAE1H         LINE#         2808
 C2:CAE6H         LINE#         2811
 C2:CAEEH         LINE#         2814
 C2:CB09H         LINE#         2815
 C2:CB09H         LINE#         2816
 C2:CB0BH         LINE#         2818
 C2:CB0BH         LINE#         2820
 C2:CB0EH         LINE#         2838
 C2:CB13H         LINE#         2841
 C2:CB16H         LINE#         2843
 C2:CB17H         LINE#         2845
 C2:CB17H         LINE#         2848
 C2:CB17H         LINE#         2849
 C2:CB17H         LINE#         2851
 C2:CB1DH         LINE#         2853
 C2:CB1DH         LINE#         2854
 C2:CB1DH         LINE#         2855
  -------         ENDPROC       AUTOMAT_PERSIMWORK
 C2:8D86H         SYMBOL        L?1216
 C2:8DB6H         SYMBOL        L?1230
 C2:8DC3H         SYMBOL        L?1237
 C2:8DD4H         SYMBOL        L?1245
 C2:8DE7H         SYMBOL        L?1252
 C2:8DF4H         SYMBOL        L?1253
 C2:8E01H         SYMBOL        L?1267
 C2:8E12H         SYMBOL        L?1272
 C2:8E1CH         SYMBOL        L?1281
 C2:8E26H         SYMBOL        L?1282
 C2:8E31H         SYMBOL        L?1308
 C2:8E3CH         SYMBOL        L?1309
 C2:8E45H         SYMBOL        L?1313
 C2:8E5AH         SYMBOL        L?1318
 C2:8E62H         SYMBOL        L?1336
 C2:8E6AH         SYMBOL        L?1343
 C2:8E73H         SYMBOL        L?1353
 C2:8E7BH         SYMBOL        L?1373
 C2:8E84H         SYMBOL        L?1377
 C2:8E9BH         SYMBOL        L?1378
 C2:8EA6H         SYMBOL        L?1397
 C2:8EAFH         SYMBOL        L?1398
 C2:8EB9H         SYMBOL        L?1408
 C2:8EC6H         SYMBOL        L?1425
 C2:8ECFH         SYMBOL        L?1426
 C2:8ED8H         SYMBOL        L?1450
 C2:8EE0H         SYMBOL        L?1475

  -------         PROC BANK=2   AUTOMAT_SMS_PHONE
  -------         DO            
  X:1BC4H         SYMBOL        i
  X:1BC5H         SYMBOL        j
  X:1BC6H         SYMBOL        M
  -------         ENDDO         
 C2:8000H         LINE#         2862
 C2:8000H         LINE#         2863
 C2:8000H         LINE#         2869
 C2:800EH         LINE#         2870
 C2:800EH         LINE#         2871
 C2:8026H         LINE#         2872
 C2:8026H         LINE#         2873
 C2:802EH         LINE#         2874
 C2:8031H         LINE#         2875
BL51 BANKED LINKER/LOCATER V6.22            10/13/2015  11:10:35  PAGE 122


 C2:8034H         LINE#         2876
 C2:8037H         LINE#         2877
 C2:803CH         LINE#         2879
 C2:803FH         LINE#         2880
 C2:803FH         LINE#         2881
 C2:8048H         LINE#         2882
 C2:804AH         LINE#         2883
 C2:804AH         LINE#         2884
 C2:804AH         LINE#         2885
 C2:804DH         LINE#         2888
 C2:811EH         LINE#         2889
 C2:811EH         LINE#         2893
 C2:811EH         LINE#         2894
 C2:8124H         LINE#         2895
 C2:8128H         LINE#         2896
 C2:812EH         LINE#         2897
 C2:812FH         LINE#         2899
 C2:812FH         LINE#         2900
 C2:8137H         LINE#         2901
 C2:813AH         LINE#         2906
 C2:813AH         LINE#         2911
 C2:813DH         LINE#         2912
 C2:813DH         LINE#         2914
 C2:8143H         LINE#         2915
 C2:8143H         LINE#         2916
 C2:814AH         LINE#         2917
 C2:814AH         LINE#         2919
 C2:8151H         LINE#         2920
 C2:8151H         LINE#         2921
 C2:8158H         LINE#         2922
 C2:8158H         LINE#         2924
 C2:816EH         LINE#         2925
 C2:816EH         LINE#         2926
 C2:8170H         LINE#         2927
 C2:8175H         LINE#         2929
 C2:818BH         LINE#         2930
 C2:818BH         LINE#         2931
 C2:8199H         LINE#         2932
 C2:819EH         LINE#         2952
 C2:819EH         LINE#         2967
 C2:81A1H         LINE#         2969
 C2:81A1H         LINE#         2974
 C2:81A1H         LINE#         2975
 C2:81A9H         LINE#         2976
 C2:81A9H         LINE#         2977
 C2:81B1H         LINE#         2978
 C2:81B7H         LINE#         2979
 C2:81B7H         LINE#         2980
 C2:81B8H         LINE#         2982
 C2:81B8H         LINE#         2983
 C2:81BFH         LINE#         2984
 C2:81BFH         LINE#         2985
 C2:81C2H         LINE#         2986
 C2:81C2H         LINE#         2987
 C2:81C6H         LINE#         2988
 C2:81C6H         LINE#         2989
 C2:81CBH         LINE#         2990
 C2:81CBH         LINE#         2991
 C2:81CEH         LINE#         2992
 C2:81CEH         LINE#         2993
 C2:81D1H         LINE#         2995
 C2:81D1H         LINE#         2996
 C2:81DFH         LINE#         2997
 C2:81DFH         LINE#         2998
 C2:81DFH         LINE#         2999
BL51 BANKED LINKER/LOCATER V6.22            10/13/2015  11:10:35  PAGE 123


 C2:81E4H         LINE#         3000
 C2:81E4H         LINE#         3001
 C2:81EFH         LINE#         3002
 C2:81EFH         LINE#         3003
 C2:81F2H         LINE#         3004
 C2:81F2H         LINE#         3005
 C2:81F6H         LINE#         3006
 C2:81F6H         LINE#         3007
 C2:81FBH         LINE#         3008
 C2:81FBH         LINE#         3009
 C2:81FEH         LINE#         3010
 C2:8200H         LINE#         3011
 C2:8200H         LINE#         3012
 C2:8203H         LINE#         3014
 C2:8203H         LINE#         3015
 C2:8209H         LINE#         3016
 C2:820CH         LINE#         3021
 C2:820CH         LINE#         3022
 C2:8214H         LINE#         3023
 C2:8214H         LINE#         3024
 C2:821BH         LINE#         3026
 C2:8221H         LINE#         3027
 C2:8221H         LINE#         3028
 C2:8222H         LINE#         3030
 C2:8222H         LINE#         3031
 C2:8229H         LINE#         3032
 C2:8229H         LINE#         3033
 C2:822CH         LINE#         3035
 C2:8233H         LINE#         3036
 C2:8233H         LINE#         3037
 C2:823BH         LINE#         3038
 C2:8243H         LINE#         3039
 C2:8243H         LINE#         3040
 C2:824AH         LINE#         3041
 C2:824AH         LINE#         3042
 C2:8254H         LINE#         3043
 C2:8254H         LINE#         3044
 C2:8256H         LINE#         3045
 C2:8258H         LINE#         3046
 C2:8258H         LINE#         3047
 C2:8258H         LINE#         3048
 C2:825BH         LINE#         3050
 C2:825BH         LINE#         3051
 C2:8263H         LINE#         3052
 C2:8263H         LINE#         3053
 C2:8269H         LINE#         3054
 C2:8269H         LINE#         3055
 C2:8269H         LINE#         3056
 C2:8269H         LINE#         3057
 C2:826CH         LINE#         3059
 C2:826CH         LINE#         3060
 C2:826CH         LINE#         3061
 C2:826CH         LINE#         3062
 C2:826CH         LINE#         3063
 C2:826CH         LINE#         3064
 C2:826CH         LINE#         3065
 C2:826CH         LINE#         3066
 C2:8275H         LINE#         3067
 C2:827AH         LINE#         3068
 C2:827CH         LINE#         3069
 C2:827FH         LINE#         3071
 C2:82A1H         LINE#         3072
 C2:82B0H         LINE#         3073
 C2:82B0H         LINE#         3074
 C2:82BEH         LINE#         3075
BL51 BANKED LINKER/LOCATER V6.22            10/13/2015  11:10:35  PAGE 124


 C2:82C6H         LINE#         3076
 C2:82C9H         LINE#         3077
 C2:82CFH         LINE#         3078
 C2:82CFH         LINE#         3079
 C2:82D0H         LINE#         3081
 C2:82D0H         LINE#         3082
 C2:82D7H         LINE#         3083
 C2:82D7H         LINE#         3084
 C2:82DCH         LINE#         3085
 C2:82E3H         LINE#         3086
 C2:82EAH         LINE#         3088
 C2:82EAH         LINE#         3089
 C2:82F2H         LINE#         3090
 C2:82FEH         LINE#         3091
 C2:82FEH         LINE#         3092
 C2:82FEH         LINE#         3093
 C2:8304H         LINE#         3094
 C2:830FH         LINE#         3095
 C2:830FH         LINE#         3096
 C2:830FH         LINE#         3097
 C2:830FH         LINE#         3098
 C2:830FH         LINE#         3099
 C2:830FH         LINE#         3100
 C2:830FH         LINE#         3101
 C2:830FH         LINE#         3102
 C2:8312H         LINE#         3104
 C2:8312H         LINE#         3105
 C2:8324H         LINE#         3107
 C2:8324H         LINE#         3108
 C2:8336H         LINE#         3109
 C2:8348H         LINE#         3110
 C2:8360H         LINE#         3111
 C2:8360H         LINE#         3112
 C2:8361H         LINE#         3114
 C2:8361H         LINE#         3115
 C2:836AH         LINE#         3116
 C2:8370H         LINE#         3117
 C2:8371H         LINE#         3119
 C2:8371H         LINE#         3121
 C2:837AH         LINE#         3122
 C2:837AH         LINE#         3123
 C2:837EH         LINE#         3124
 C2:8381H         LINE#         3125
 C2:8381H         LINE#         3126
 C2:8383H         LINE#         3127
 C2:8387H         LINE#         3128
 C2:838AH         LINE#         3130
 C2:838AH         LINE#         3131
 C2:8390H         LINE#         3132
 C2:8398H         LINE#         3134
 C2:8398H         LINE#         3135
 C2:83A5H         LINE#         3136
 C2:83A5H         LINE#         3137
 C2:83A5H         LINE#         3138
 C2:83ABH         LINE#         3139
 C2:83B7H         LINE#         3140
 C2:83B7H         LINE#         3141
 C2:83B9H         LINE#         3142
 C2:83BEH         LINE#         3143
 C2:83C2H         LINE#         3144
 C2:83C2H         LINE#         3145
 C2:83C5H         LINE#         3147
 C2:83C5H         LINE#         3148
 C2:83D0H         LINE#         3149
 C2:83D1H         LINE#         3152
BL51 BANKED LINKER/LOCATER V6.22            10/13/2015  11:10:35  PAGE 125


 C2:83D1H         LINE#         3153
 C2:83D9H         LINE#         3154
 C2:83D9H         LINE#         3155
 C2:83DBH         LINE#         3156
 C2:83EAH         LINE#         3158
 C2:83EAH         LINE#         3159
 C2:83F0H         LINE#         3161
 C2:83FBH         LINE#         3163
 C2:83FBH         LINE#         3164
 C2:83FEH         LINE#         3166
 C2:83FEH         LINE#         3167
 C2:8406H         LINE#         3168
 C2:8412H         LINE#         3169
 C2:8412H         LINE#         3170
 C2:8414H         LINE#         3171
 C2:8417H         LINE#         3173
 C2:841AH         LINE#         3179
 C2:841AH         LINE#         3180
 C2:841DH         LINE#         3186
 C2:841DH         LINE#         3187
 C2:8429H         LINE#         3188
 C2:8429H         LINE#         3190
 C2:8429H         LINE#         3191
 C2:8429H         LINE#         3192
 C2:8429H         LINE#         3193
 C2:8429H         LINE#         3194
 C2:8429H         LINE#         3195
 C2:8429H         LINE#         3196
 C2:842EH         LINE#         3197
 C2:842EH         LINE#         3198
 C2:8437H         LINE#         3199
 C2:8439H         LINE#         3200
 C2:8442H         LINE#         3202
 C2:844EH         LINE#         3206
 C2:8456H         LINE#         3207
 C2:8456H         LINE#         3208
 C2:8461H         LINE#         3209
 C2:8466H         LINE#         3210
 C2:8466H         LINE#         3211
 C2:846FH         LINE#         3212
 C2:8475H         LINE#         3213
 C2:8475H         LINE#         3214
 C2:8476H         LINE#         3216
 C2:8476H         LINE#         3217
 C2:847DH         LINE#         3218
 C2:847DH         LINE#         3219
 C2:8480H         LINE#         3220
 C2:8486H         LINE#         3221
 C2:848CH         LINE#         3222
 C2:848CH         LINE#         3223
 C2:8499H         LINE#         3224
 C2:8499H         LINE#         3225
 C2:8499H         LINE#         3226
 C2:849EH         LINE#         3227
 C2:849EH         LINE#         3228
 C2:84A9H         LINE#         3229
 C2:84A9H         LINE#         3230
 C2:84ABH         LINE#         3231
 C2:84ADH         LINE#         3232
 C2:84ADH         LINE#         3233
 C2:84B0H         LINE#         3235
 C2:84B0H         LINE#         3236
 C2:84B6H         LINE#         3237
 C2:84B9H         LINE#         3242
 C2:84B9H         LINE#         3243
BL51 BANKED LINKER/LOCATER V6.22            10/13/2015  11:10:35  PAGE 126


 C2:84CAH         LINE#         3246
 C2:84CAH         LINE#         3247
 C2:84D2H         LINE#         3248
 C2:84D2H         LINE#         3250
 C2:84D2H         LINE#         3251
 C2:84D5H         LINE#         3252
 C2:84D7H         LINE#         3253
 C2:84DCH         LINE#         3254
 C2:84E1H         LINE#         3255
 C2:84E1H         LINE#         3256
 C2:84E6H         LINE#         3257
 C2:84EFH         LINE#         3258
 C2:84F1H         LINE#         3259
 C2:84F4H         LINE#         3261
 C2:84FBH         LINE#         3262
 C2:84FBH         LINE#         3263
 C2:84FEH         LINE#         3264
 C2:84FEH         LINE#         3265
 C2:8500H         LINE#         3267
 C2:8507H         LINE#         3268
 C2:8507H         LINE#         3269
 C2:850CH         LINE#         3270
 C2:850EH         LINE#         3272
 C2:8517H         LINE#         3273
 C2:8517H         LINE#         3274
 C2:851AH         LINE#         3275
 C2:8520H         LINE#         3276
 C2:8522H         LINE#         3278
 C2:8522H         LINE#         3279
 C2:852FH         LINE#         3280
 C2:852FH         LINE#         3282
 C2:8538H         LINE#         3283
 C2:8538H         LINE#         3284
 C2:8538H         LINE#         3285
 C2:853BH         LINE#         3286
 C2:853BH         LINE#         3288
 C2:853BH         LINE#         3289
 C2:853EH         LINE#         3290
 C2:854EH         LINE#         3294
 C2:8556H         LINE#         3295
 C2:8556H         LINE#         3296
 C2:8561H         LINE#         3297
 C2:8566H         LINE#         3298
 C2:8566H         LINE#         3299
 C2:856FH         LINE#         3300
 C2:8579H         LINE#         3301
 C2:8579H         LINE#         3302
 C2:857CH         LINE#         3303
 C2:857EH         LINE#         3304
 C2:8583H         LINE#         3305
 C2:8585H         LINE#         3307
 C2:8585H         LINE#         3308
 C2:8588H         LINE#         3309
 C2:858AH         LINE#         3310
 C2:8593H         LINE#         3311
 C2:8593H         LINE#         3312
 C2:8593H         LINE#         3313
 C2:8596H         LINE#         3314
 C2:859FH         LINE#         3315
 C2:859FH         LINE#         3316
 C2:85A4H         LINE#         3317
 C2:85A9H         LINE#         3318
 C2:85AEH         LINE#         3319
 C2:85B1H         LINE#         3321
 C2:85BAH         LINE#         3322
BL51 BANKED LINKER/LOCATER V6.22            10/13/2015  11:10:35  PAGE 127


 C2:85BAH         LINE#         3323
 C2:85BAH         LINE#         3324
 C2:85BFH         LINE#         3325
 C2:85C4H         LINE#         3326
 C2:85C6H         LINE#         3328
 C2:85CDH         LINE#         3329
 C2:85CDH         LINE#         3330
 C2:85CDH         LINE#         3331
 C2:85D2H         LINE#         3332
 C2:85D4H         LINE#         3334
 C2:85DBH         LINE#         3335
 C2:85DBH         LINE#         3336
 C2:85DDH         LINE#         3337
 C2:85E2H         LINE#         3338
 C2:85E4H         LINE#         3340
 C2:85EBH         LINE#         3341
 C2:85EBH         LINE#         3342
 C2:85EDH         LINE#         3343
 C2:85F2H         LINE#         3344
 C2:85F4H         LINE#         3346
 C2:85FDH         LINE#         3347
 C2:85FDH         LINE#         3348
 C2:85FDH         LINE#         3349
 C2:8606H         LINE#         3350
 C2:860FH         LINE#         3351
 C2:8611H         LINE#         3353
 C2:8618H         LINE#         3354
 C2:8618H         LINE#         3355
 C2:861DH         LINE#         3356
 C2:861DH         LINE#         3357
 C2:8626H         LINE#         3358
 C2:862FH         LINE#         3359
 C2:862FH         LINE#         3360
 C2:8634H         LINE#         3361
 C2:8637H         LINE#         3362
 C2:863DH         LINE#         3363
 C2:863EH         LINE#         3365
 C2:863EH         LINE#         3366
 C2:8643H         LINE#         3367
 C2:8643H         LINE#         3368
 C2:864EH         LINE#         3369
 C2:8652H         LINE#         3370
 C2:8652H         LINE#         3371
 C2:8654H         LINE#         3372
 C2:8656H         LINE#         3373
 C2:8656H         LINE#         3374
 C2:865BH         LINE#         3375
 C2:8662H         LINE#         3376
 C2:8662H         LINE#         3377
 C2:866BH         LINE#         3378
 C2:866BH         LINE#         3379
 C2:8670H         LINE#         3380
 C2:8670H         LINE#         3381
 C2:867BH         LINE#         3382
 C2:867BH         LINE#         3383
 C2:867DH         LINE#         3384
 C2:867FH         LINE#         3385
 C2:867FH         LINE#         3386
 C2:8682H         LINE#         3388
 C2:8682H         LINE#         3389
 C2:868DH         LINE#         3390
 C2:868EH         LINE#         3395
 C2:868EH         LINE#         3396
 C2:8696H         LINE#         3397
 C2:8696H         LINE#         3398
BL51 BANKED LINKER/LOCATER V6.22            10/13/2015  11:10:35  PAGE 128


 C2:8698H         LINE#         3399
 C2:8698H         LINE#         3400
 C2:869BH         LINE#         3405
 C2:869BH         LINE#         3406
 C2:86A3H         LINE#         3407
 C2:86A3H         LINE#         3408
 C2:86ABH         LINE#         3409
 C2:86ABH         LINE#         3410
 C2:86B3H         LINE#         3411
 C2:86BBH         LINE#         3412
 C2:86BBH         LINE#         3413
 C2:86BDH         LINE#         3414
 C2:86BFH         LINE#         3415
 C2:86BFH         LINE#         3416
 C2:86C2H         LINE#         3442
 C2:86C2H         LINE#         3443
 C2:86CAH         LINE#         3444
 C2:86CAH         LINE#         3446
 C2:86D2H         LINE#         3447
 C2:86D2H         LINE#         3448
 C2:86D6H         LINE#         3449
 C2:86D6H         LINE#         3450
 C2:86DDH         LINE#         3451
 C2:86DDH         LINE#         3452
 C2:86E9H         LINE#         3453
 C2:86E9H         LINE#         3454
 C2:86EFH         LINE#         3457
 C2:86EFH         LINE#         3458
 C2:86FAH         LINE#         3459
 C2:86FBH         LINE#         3461
 C2:86FBH         LINE#         3462
 C2:8704H         LINE#         3463
 C2:8704H         LINE#         3464
 C2:8707H         LINE#         3465
 C2:870DH         LINE#         3466
 C2:870DH         LINE#         3467
 C2:870EH         LINE#         3468
 C2:870EH         LINE#         3469
 C2:8716H         LINE#         3470
 C2:8716H         LINE#         3472
 C2:871EH         LINE#         3473
 C2:871EH         LINE#         3474
 C2:8722H         LINE#         3475
 C2:8722H         LINE#         3477
 C2:8724H         LINE#         3478
 C2:8727H         LINE#         3480
 C2:872AH         LINE#         3482
 C2:872AH         LINE#         3483
 C2:8736H         LINE#         3484
 C2:8736H         LINE#         3485
 C2:8738H         LINE#         3486
 C2:873DH         LINE#         3487
 C2:873DH         LINE#         3488
 C2:8748H         LINE#         3489
 C2:8749H         LINE#         3495
 C2:8749H         LINE#         3496
 C2:8751H         LINE#         3497
 C2:8751H         LINE#         3498
 C2:875AH         LINE#         3499
 C2:875AH         LINE#         3500
 C2:875BH         LINE#         3502
 C2:875BH         LINE#         3503
 C2:876AH         LINE#         3505
 C2:876AH         LINE#         3506
 C2:876DH         LINE#         3507
BL51 BANKED LINKER/LOCATER V6.22            10/13/2015  11:10:35  PAGE 129


 C2:8773H         LINE#         3508
 C2:8773H         LINE#         3510
 C2:877DH         LINE#         3511
 C2:877DH         LINE#         3512
 C2:8780H         LINE#         3513
 C2:8788H         LINE#         3514
 C2:8788H         LINE#         3515
 C2:8793H         LINE#         3516
 C2:8794H         LINE#         3518
 C2:8794H         LINE#         3519
 C2:87A2H         LINE#         3520
 C2:87A2H         LINE#         3525
 C2:87A5H         LINE#         3526
 C2:87AAH         LINE#         3527
 C2:87AAH         LINE#         3528
 C2:87ADH         LINE#         3534
 C2:87ADH         LINE#         3535
 C2:87B5H         LINE#         3536
 C2:87B6H         LINE#         3537
 C2:87B6H         LINE#         3538
 C2:87BEH         LINE#         3539
 C2:87BEH         LINE#         3540
 C2:87C7H         LINE#         3541
 C2:87C7H         LINE#         3542
 C2:87C8H         LINE#         3543
 C2:87C8H         LINE#         3544
 C2:87D0H         LINE#         3545
 C2:87D0H         LINE#         3546
 C2:87D5H         LINE#         3547
 C2:87DBH         LINE#         3548
 C2:87DBH         LINE#         3549
 C2:87DCH         LINE#         3553
 C2:87DCH         LINE#         3554
 C2:87E2H         LINE#         3555
 C2:87E3H         LINE#         3556
 C2:87E3H         LINE#         3557
 C2:87ECH         LINE#         3558
 C2:87ECH         LINE#         3559
 C2:87EEH         LINE#         3560
 C2:87F5H         LINE#         3561
 C2:87F5H         LINE#         3562
 C2:87F6H         LINE#         3563
 C2:87F6H         LINE#         3564
 C2:8805H         LINE#         3565
 C2:8805H         LINE#         3566
 C2:8807H         LINE#         3567
 C2:880EH         LINE#         3568
 C2:880EH         LINE#         3569
 C2:880FH         LINE#         3570
 C2:880FH         LINE#         3571
 C2:8824H         LINE#         3572
 C2:8825H         LINE#         3576
 C2:8825H         LINE#         3577
 C2:882BH         LINE#         3578
 C2:882DH         LINE#         3579
 C2:882EH         LINE#         3580
 C2:882EH         LINE#         3581
 C2:883DH         LINE#         3582
 C2:883DH         LINE#         3583
 C2:883FH         LINE#         3584
 C2:8846H         LINE#         3586
 C2:884AH         LINE#         3589
 C2:884CH         LINE#         3590
 C2:884FH         LINE#         3592
 C2:8855H         LINE#         3593
BL51 BANKED LINKER/LOCATER V6.22            10/13/2015  11:10:35  PAGE 130


 C2:885AH         LINE#         3594
 C2:885AH         LINE#         3595
 C2:885BH         LINE#         3599
 C2:885BH         LINE#         3600
 C2:886AH         LINE#         3601
 C2:886AH         LINE#         3602
 C2:8878H         LINE#         3603
 C2:8878H         LINE#         3604
 C2:8879H         LINE#         3605
 C2:8879H         LINE#         3606
 C2:8880H         LINE#         3607
 C2:8886H         LINE#         3608
 C2:8887H         LINE#         3609
 C2:8887H         LINE#         3610
 C2:888FH         LINE#         3611
 C2:888FH         LINE#         3612
 C2:8894H         LINE#         3613
 C2:889AH         LINE#         3614
 C2:889AH         LINE#         3615
 C2:88A6H         LINE#         3616
 C2:88A6H         LINE#         3617
 C2:88A6H         LINE#         3618
 C2:88ADH         LINE#         3619
 C2:88ADH         LINE#         3621
 C2:88BAH         LINE#         3622
 C2:88BAH         LINE#         3623
 C2:88BDH         LINE#         3624
 C2:88BFH         LINE#         3626
 C2:88BFH         LINE#         3627
 C2:88C2H         LINE#         3628
 C2:88C2H         LINE#         3630
 C2:88C4H         LINE#         3632
 C2:88CAH         LINE#         3633
 C2:88CAH         LINE#         3634
 C2:88D0H         LINE#         3635
 C2:88D3H         LINE#         3639
 C2:88D3H         LINE#         3640
 C2:88E0H         LINE#         3641
 C2:88E1H         LINE#         3642
 C2:88E1H         LINE#         3643
 C2:88F2H         LINE#         3644
 C2:88F2H         LINE#         3645
 C2:88F7H         LINE#         3646
 C2:88FFH         LINE#         3650
 C2:8908H         LINE#         3651
 C2:890DH         LINE#         3653
 C2:8910H         LINE#         3654
 C2:8910H         LINE#         3655
 C2:891BH         LINE#         3656
 C2:891CH         LINE#         3680
 C2:891CH         LINE#         3681
 C2:8927H         LINE#         3682
 C2:8927H         LINE#         3683
 C2:8934H         LINE#         3684
 C2:8934H         LINE#         3685
 C2:8935H         LINE#         3686
 C2:8935H         LINE#         3687
 C2:8946H         LINE#         3688
 C2:8946H         LINE#         3689
 C2:894CH         LINE#         3690
 C2:894CH         LINE#         3691
 C2:8957H         LINE#         3692
 C2:8958H         LINE#         3704
 C2:8958H         LINE#         3705
 C2:895BH         LINE#         3706
BL51 BANKED LINKER/LOCATER V6.22            10/13/2015  11:10:35  PAGE 131


 C2:8961H         LINE#         3707
 C2:8966H         LINE#         3708
 C2:8967H         LINE#         3709
 C2:8967H         LINE#         3717
 C2:896EH         LINE#         3718
 C2:896EH         LINE#         3719
 C2:8971H         LINE#         3722
 C2:8976H         LINE#         3723
 C2:8978H         LINE#         3724
 C2:897BH         LINE#         3772
 C2:8981H         LINE#         3773
 C2:8981H         LINE#         3774
 C2:89AAH         LINE#         3779
 C2:89AAH         LINE#         3780
 C2:89AAH         LINE#         3781
 C2:89AAH         LINE#         3782
 C2:89B0H         LINE#         3783
 C2:89B0H         LINE#         3784
 C2:89BBH         LINE#         3785
 C2:89BCH         LINE#         3787
 C2:89BCH         LINE#         3788
 C2:89BFH         LINE#         3789
 C2:89BFH         LINE#         3790
 C2:89C6H         LINE#         3791
 C2:89CCH         LINE#         3792
 C2:89CCH         LINE#         3793
 C2:89DBH         LINE#         3794
 C2:89DBH         LINE#         3795
 C2:89DBH         LINE#         3796
 C2:89DBH         LINE#         3797
 C2:89E1H         LINE#         3798
 C2:89E1H         LINE#         3799
 C2:89E2H         LINE#         3801
 C2:89E2H         LINE#         3802
 C2:89ECH         LINE#         3803
 C2:89ECH         LINE#         3804
 C2:89ECH         LINE#         3805
 C2:89EFH         LINE#         3806
 C2:89F2H         LINE#         3807
 C2:89F5H         LINE#         3808
 C2:89F5H         LINE#         3809
 C2:89F8H         LINE#         3961
 C2:89F8H         LINE#         3962
 C2:8A07H         LINE#         3963
 C2:8A07H         LINE#         3964
 C2:8A09H         LINE#         3965
 C2:8A0FH         LINE#         3966
 C2:8A12H         LINE#         3967
 C2:8A18H         LINE#         3968
 C2:8A1AH         LINE#         3969
 C2:8A1AH         LINE#         3970
 C2:8A1BH         LINE#         3972
 C2:8A1BH         LINE#         3973
 C2:8A2CH         LINE#         3974
 C2:8A2CH         LINE#         3975
 C2:8A2EH         LINE#         3977
 C2:8A31H         LINE#         3978
 C2:8A37H         LINE#         3979
 C2:8A37H         LINE#         3980
 C2:8A42H         LINE#         3981
 C2:8A43H         LINE#         3983
 C2:8A43H         LINE#         3984
 C2:8A52H         LINE#         3985
 C2:8A52H         LINE#         3986
 C2:8A52H         LINE#         3987
BL51 BANKED LINKER/LOCATER V6.22            10/13/2015  11:10:35  PAGE 132


 C2:8A55H         LINE#         3988
 C2:8A58H         LINE#         3989
 C2:8A5DH         LINE#         3990
 C2:8A63H         LINE#         3991
 C2:8A63H         LINE#         3992
 C2:8A6EH         LINE#         3993
 C2:8A6FH         LINE#         3998
 C2:8A6FH         LINE#         3999
 C2:8A77H         LINE#         4000
 C2:8A77H         LINE#         4001
 C2:8A7DH         LINE#         4002
 C2:8A7DH         LINE#         4003
 C2:8A85H         LINE#         4004
 C2:8A8DH         LINE#         4005
 C2:8A8DH         LINE#         4006
 C2:8A8DH         LINE#         4007
 C2:8A90H         LINE#         4008
 C2:8A90H         LINE#         4009
 C2:8A93H         LINE#         4010
 C2:8A93H         LINE#         4011
 C2:8A9BH         LINE#         4012
 C2:8A9BH         LINE#         4013
 C2:8A9BH         LINE#         4014
 C2:8AA1H         LINE#         4015
 C2:8AA1H         LINE#         4016
 C2:8AA9H         LINE#         4017
 C2:8AB5H         LINE#         4018
 C2:8AB5H         LINE#         4019
 C2:8AB5H         LINE#         4020
 C2:8AB8H         LINE#         4021
 C2:8AB8H         LINE#         4022
 C2:8ABBH         LINE#         4026
 C2:8ABBH         LINE#         4028
 C2:8AC1H         LINE#         4029
 C2:8AC1H         LINE#         4031
 C2:8AD0H         LINE#         4033
 C2:8AD0H         LINE#         4036
 C2:8AD0H         LINE#         4037
 C2:8AD7H         LINE#         4039
 C2:8AD7H         LINE#         4040
 C2:8AD7H         LINE#         4163
 C2:8AD7H         LINE#         4164
 C2:8ADAH         LINE#         4165
 C2:8AE0H         LINE#         4166
 C2:8AE1H         LINE#         4167
 C2:8AE1H         LINE#         4168
 C2:8AE8H         LINE#         4169
 C2:8AE8H         LINE#         4172
 C2:8AEAH         LINE#         4173
 C2:8AEAH         LINE#         4174
 C2:8AEAH         LINE#         4175
 C2:8AEDH         LINE#         4177
 C2:8AEDH         LINE#         4178
 C2:8AFAH         LINE#         4179
 C2:8AFAH         LINE#         4180
 C2:8AFAH         LINE#         4181
 C2:8AFEH         LINE#         4182
 C2:8B04H         LINE#         4184
 C2:8B04H         LINE#         4185
 C2:8B10H         LINE#         4186
 C2:8B10H         LINE#         4188
 C2:8B12H         LINE#         4189
 C2:8B15H         LINE#         4190
 C2:8B15H         LINE#         4191
 C2:8B1DH         LINE#         4192
BL51 BANKED LINKER/LOCATER V6.22            10/13/2015  11:10:35  PAGE 133


 C2:8B1DH         LINE#         4193
 C2:8B1FH         LINE#         4194
 C2:8B23H         LINE#         4195
 C2:8B26H         LINE#         4197
 C2:8B26H         LINE#         4198
 C2:8B29H         LINE#         4199
 C2:8B29H         LINE#         4200
 C2:8B34H         LINE#         4201
 C2:8B35H         LINE#         4203
 C2:8B35H         LINE#         4204
 C2:8B38H         LINE#         4205
 C2:8B38H         LINE#         4206
 C2:8B3DH         LINE#         4208
 C2:8B3FH         LINE#         4209
 C2:8B42H         LINE#         4210
 C2:8B48H         LINE#         4211
 C2:8B4FH         LINE#         4213
 C2:8B55H         LINE#         4214
 C2:8B56H         LINE#         4216
 C2:8B62H         LINE#         4217
 C2:8B62H         LINE#         4218
 C2:8B62H         LINE#         4219
 C2:8B69H         LINE#         4220
 C2:8B69H         LINE#         4221
 C2:8B6BH         LINE#         4222
 C2:8B6FH         LINE#         4223
 C2:8B72H         LINE#         4225
 C2:8B72H         LINE#         4226
 C2:8B75H         LINE#         4227
 C2:8B75H         LINE#         4228
 C2:8B76H         LINE#         4235
 C2:8B76H         LINE#         4236
 C2:8B80H         LINE#         4237
 C2:8B83H         LINE#         4238
 C2:8B89H         LINE#         4239
 C2:8B8AH         LINE#         4240
 C2:8B8AH         LINE#         4241
 C2:8B91H         LINE#         4242
 C2:8B91H         LINE#         4243
 C2:8B96H         LINE#         4244
 C2:8B9AH         LINE#         4245
 C2:8BA0H         LINE#         4246
 C2:8BA6H         LINE#         4247
 C2:8BA8H         LINE#         4249
 C2:8BB1H         LINE#         4251
 C2:8BB1H         LINE#         4253
 C2:8BB3H         LINE#         4254
 C2:8BB3H         LINE#         4255
 C2:8BB3H         LINE#         4256
 C2:8BB3H         LINE#         4257
 C2:8BBBH         LINE#         4258
 C2:8BBBH         LINE#         4259
 C2:8BBBH         LINE#         4260
 C2:8BBBH         LINE#         4261
 C2:8BBEH         LINE#         4262
 C2:8BC0H         LINE#         4263
 C2:8BC6H         LINE#         4265
 C2:8BC6H         LINE#         4266
 C2:8BCCH         LINE#         4267
 C2:8BCCH         LINE#         4268
 C2:8BD7H         LINE#         4269
 C2:8BD8H         LINE#         4276
 C2:8BD8H         LINE#         4277
 C2:8BE0H         LINE#         4278
 C2:8BE0H         LINE#         4279
BL51 BANKED LINKER/LOCATER V6.22            10/13/2015  11:10:35  PAGE 134


 C2:8BE3H         LINE#         4280
 C2:8BE9H         LINE#         4281
 C2:8BE9H         LINE#         4282
 C2:8BEAH         LINE#         4284
 C2:8BEAH         LINE#         4285
 C2:8BF1H         LINE#         4286
 C2:8BF1H         LINE#         4287
 C2:8BF6H         LINE#         4288
 C2:8BF6H         LINE#         4289
 C2:8BFCH         LINE#         4291
 C2:8BFEH         LINE#         4292
 C2:8C01H         LINE#         4294
 C2:8C01H         LINE#         4295
 C2:8C08H         LINE#         4297
 C2:8C08H         LINE#         4298
 C2:8C1FH         LINE#         4301
 C2:8C1FH         LINE#         4303
 C2:8C21H         LINE#         4304
 C2:8C21H         LINE#         4307
 C2:8C21H         LINE#         4308
 C2:8C21H         LINE#         4309
 C2:8C29H         LINE#         4310
 C2:8C29H         LINE#         4311
 C2:8C29H         LINE#         4312
 C2:8C29H         LINE#         4313
 C2:8C2CH         LINE#         4314
 C2:8C2FH         LINE#         4315
 C2:8C36H         LINE#         4318
 C2:8C36H         LINE#         4319
 C2:8C36H         LINE#         4320
 C2:8C3CH         LINE#         4321
 C2:8C3CH         LINE#         4322
 C2:8C47H         LINE#         4323
 C2:8C48H         LINE#         4328
 C2:8C48H         LINE#         4329
 C2:8C52H         LINE#         4332
 C2:8C52H         LINE#         4333
 C2:8C57H         LINE#         4334
 C2:8C5BH         LINE#         4335
 C2:8C5BH         LINE#         4336
 C2:8C61H         LINE#         4337
 C2:8C61H         LINE#         4338
 C2:8C62H         LINE#         4339
 C2:8C62H         LINE#         4340
 C2:8C6DH         LINE#         4341
 C2:8C6DH         LINE#         4342
 C2:8C70H         LINE#         4343
 C2:8C78H         LINE#         4345
 C2:8C89H         LINE#         4346
 C2:8C91H         LINE#         4348
 C2:8C97H         LINE#         4349
 C2:8C9DH         LINE#         4350
 C2:8C9DH         LINE#         4351
 C2:8C9EH         LINE#         4357
 C2:8C9EH         LINE#         4358
 C2:8CA0H         LINE#         4359
 C2:8CA6H         LINE#         4360
 C2:8CA7H         LINE#         4361
 C2:8CA7H         LINE#         4362
 C2:8CB3H         LINE#         4363
 C2:8CB3H         LINE#         4364
 C2:8CB5H         LINE#         4365
 C2:8CBBH         LINE#         4366
 C2:8CBBH         LINE#         4367
 C2:8CBCH         LINE#         4368
BL51 BANKED LINKER/LOCATER V6.22            10/13/2015  11:10:35  PAGE 135


 C2:8CBCH         LINE#         4369
 C2:8CC3H         LINE#         4370
 C2:8CC3H         LINE#         4371
 C2:8CC3H         LINE#         4372
 C2:8CC7H         LINE#         4374
 C2:8CC9H         LINE#         4375
 C2:8CCCH         LINE#         4378
 C2:8CD1H         LINE#         4379
 C2:8CD6H         LINE#         4380
 C2:8CD9H         LINE#         4381
 C2:8CD9H         LINE#         4382
 C2:8CE1H         LINE#         4383
 C2:8CEAH         LINE#         4384
 C2:8CEAH         LINE#         4388
 C2:8CECH         LINE#         4389
 C2:8CEFH         LINE#         4391
 C2:8CEFH         LINE#         4392
 C2:8CF4H         LINE#         4393
 C2:8CF4H         LINE#         4394
 C2:8CF7H         LINE#         4395
 C2:8CF7H         LINE#         4396
 C2:8CF7H         LINE#         4397
 C2:8CF7H         LINE#         4398
 C2:8CF9H         LINE#         4539
 C2:8CF9H         LINE#         4540
 C2:8D01H         LINE#         4541
 C2:8D01H         LINE#         4542
 C2:8D06H         LINE#         4543
 C2:8D0DH         LINE#         4544
 C2:8D0DH         LINE#         4545
 C2:8D16H         LINE#         4546
 C2:8D16H         LINE#         4547
 C2:8D1DH         LINE#         4548
 C2:8D1DH         LINE#         4549
 C2:8D22H         LINE#         4550
 C2:8D22H         LINE#         4551
 C2:8D22H         LINE#         4552
 C2:8D25H         LINE#         4553
 C2:8D25H         LINE#         4554
 C2:8D2DH         LINE#         4555
 C2:8D2EH         LINE#         4556
 C2:8D2EH         LINE#         4557
 C2:8D37H         LINE#         4558
 C2:8D37H         LINE#         4559
 C2:8D3AH         LINE#         4560
 C2:8D40H         LINE#         4561
 C2:8D40H         LINE#         4562
 C2:8D41H         LINE#         4563
 C2:8D41H         LINE#         4564
 C2:8D49H         LINE#         4565
 C2:8D49H         LINE#         4566
 C2:8D4EH         LINE#         4567
 C2:8D57H         LINE#         4568
 C2:8D57H         LINE#         4569
 C2:8D60H         LINE#         4570
 C2:8D60H         LINE#         4572
 C2:8D65H         LINE#         4573
 C2:8D6AH         LINE#         4575
 C2:8D6EH         LINE#         4577
 C2:8D6EH         LINE#         4578
 C2:8D73H         LINE#         4579
 C2:8D73H         LINE#         4580
 C2:8D73H         LINE#         4581
 C2:8D76H         LINE#         4582
 C2:8D76H         LINE#         4583
BL51 BANKED LINKER/LOCATER V6.22            10/13/2015  11:10:35  PAGE 136


 C2:8D7EH         LINE#         4584
 C2:8D7FH         LINE#         4601
 C2:8D7FH         LINE#         4602
 C2:8D82H         LINE#         4603
 C2:8D85H         LINE#         4604
 C2:8D85H         LINE#         4605
 C2:8D85H         LINE#         4606
  -------         ENDPROC       AUTOMAT_SMS_PHONE

  -------         PROC BANK=2   RESTART_PHONE
 C2:E728H         LINE#         4610
 C2:E728H         LINE#         4611
 C2:E728H         LINE#         4612
 C2:E72FH         LINE#         4614
 C2:E735H         LINE#         4615
 C2:E73CH         LINE#         4617
 C2:E741H         LINE#         4618
 C2:E747H         LINE#         4620
 C2:E749H         LINE#         4621
 C2:E74BH         LINE#         4623
 C2:E74DH         LINE#         4625
 C2:E753H         LINE#         4626
  -------         ENDPROC       RESTART_PHONE

  -------         PROC BANK=2   GET_QUALITY_SIGNAL
 C2:E59CH         LINE#         4655
 C2:E59CH         LINE#         4656
 C2:E59CH         LINE#         4659
 C2:E5A5H         LINE#         4660
 C2:E5AEH         LINE#         4661
 C2:E5BBH         LINE#         4662
 C2:E5C4H         LINE#         4663
 C2:E5D0H         LINE#         4665
 C2:E5D2H         LINE#         4666
  -------         ENDPROC       GET_QUALITY_SIGNAL

  -------         PROC BANK=2   IS_NEW_SMS
 C2:EB99H         LINE#         4674
 C2:EB99H         LINE#         4675
 C2:EB99H         LINE#         4676
 C2:EBADH         LINE#         4677
 C2:EBAEH         LINE#         4678
  -------         ENDPROC       IS_NEW_SMS

  -------         PROC BANK=2   IS_NEW_SMS_8BIT
 C2:EC0FH         LINE#         4681
 C2:EC0FH         LINE#         4682
 C2:EC0FH         LINE#         4683
 C2:EC11H         LINE#         4684
  -------         ENDPROC       IS_NEW_SMS_8BIT

  -------         PROC BANK=2   DELETE_SMS
 C2:EAF7H         LINE#         4688
 C2:EAF7H         LINE#         4689
 C2:EAF7H         LINE#         4690
 C2:EAF9H         LINE#         4691
 C2:EAFEH         LINE#         4693
 C2:EB15H         LINE#         4694
  -------         ENDPROC       DELETE_SMS

  -------         PROC BANK=2   ISNONDELETE_SMS
 C2:EC12H         LINE#         4699
 C2:EC12H         LINE#         4700
 C2:EC12H         LINE#         4701
 C2:EC14H         LINE#         4702
BL51 BANKED LINKER/LOCATER V6.22            10/13/2015  11:10:35  PAGE 137


  -------         ENDPROC       ISNONDELETE_SMS

  -------         PROC BANK=2   READ_NEW_SMS
  -------         DO            
  D:0006H         SYMBOL        Len
  -------         ENDDO         
 C2:EB82H         LINE#         4708
 C2:EB82H         LINE#         4709
 C2:EB82H         LINE#         4711
 C2:EB88H         LINE#         4713
 C2:EB8EH         LINE#         4714
 C2:EB93H         LINE#         4715
 C2:EB96H         LINE#         4716
 C2:EB98H         LINE#         4717
  -------         ENDPROC       READ_NEW_SMS

  -------         PROC BANK=2   _SEND_MODEM
  D:0028H         SYMBOL        buf_sms
  D:0005H         SYMBOL        len_sms
  -------         DO            
  D:0007H         SYMBOL        i
  -------         ENDDO         
 C2:E6A0H         LINE#         4719
 C2:E6A6H         LINE#         4720
 C2:E6A6H         LINE#         4722
 C2:E6ADH         LINE#         4723
 C2:E6ADH         LINE#         4724
 C2:E6BEH         LINE#         4725
 C2:E6C1H         LINE#         4726
 C2:E6C3H         LINE#         4727
 C2:E6C9H         LINE#         4728
 C2:E6CEH         LINE#         4729
  -------         ENDPROC       _SEND_MODEM

  -------         PROC BANK=2   _DO_PACK_TEL_8B_SMS
  D:002DH         SYMBOL        buf_sms
  D:0030H         SYMBOL        len_sms
  D:0031H         SYMBOL        Fmt
  -------         DO            
  X:1BC7H         SYMBOL        i
  X:1BC8H         SYMBOL        j
  X:1BC9H         SYMBOL        n
  X:1BCAH         SYMBOL        ix
  -------         ENDDO         
 C2:CF01H         LINE#         4731
 C2:CF09H         LINE#         4732
 C2:CF09H         LINE#         4735
 C2:CF0EH         LINE#         4744
 C2:CF14H         LINE#         4747
 C2:CF1FH         LINE#         4748
 C2:CF47H         LINE#         4750
 C2:CF4FH         LINE#         4753
 C2:CF54H         LINE#         4755
 C2:CF62H         LINE#         4756
 C2:CF80H         LINE#         4757
 C2:CF8EH         LINE#         4759
 C2:CFB8H         LINE#         4760
 C2:CFBDH         LINE#         4763
 C2:CFCCH         LINE#         4764
 C2:CFD2H         LINE#         4766
 C2:CFD8H         LINE#         4769
 C2:CFF7H         LINE#         4770
 C2:CFFDH         LINE#         4772
 C2:D00CH         LINE#         4773
 C2:D00CH         LINE#         4774
BL51 BANKED LINKER/LOCATER V6.22            10/13/2015  11:10:35  PAGE 138


 C2:D01DH         LINE#         4775
 C2:D022H         LINE#         4776
 C2:D02AH         LINE#         4777
  -------         ENDPROC       _DO_PACK_TEL_8B_SMS

  -------         PROC BANK=2   _SEND_SMS
  D:0001H         SYMBOL        buf_sms
  D:0005H         SYMBOL        len_sms
  D:002CH         SYMBOL        Num
 C2:EBE6H         LINE#         4785
 C2:EBE6H         LINE#         4786
 C2:EBE6H         LINE#         4788
 C2:EBECH         LINE#         4790
 C2:EBEEH         LINE#         4791
 C2:EBF4H         LINE#         4792
  -------         ENDPROC       _SEND_SMS

  -------         PROC BANK=2   IS_SMS_SEND_OUT
 C2:EC09H         LINE#         4798
 C2:EC09H         LINE#         4799
 C2:EC09H         LINE#         4800
 C2:EC0EH         LINE#         4801
  -------         ENDPROC       IS_SMS_SEND_OUT

  -------         PROC BANK=2   _WRITE_TEL_TO_PHONE
  D:0007H         SYMBOL        ix
  D:0029H         SYMBOL        buf
  -------         DO            
  X:1BC6H         SYMBOL        i
  -------         ENDDO         
 C2:D65FH         LINE#         4807
 C2:D665H         LINE#         4808
 C2:D665H         LINE#         4811
 C2:D66CH         LINE#         4812
 C2:D66CH         LINE#         4813
 C2:D68EH         LINE#         4814
 C2:D694H         LINE#         4815
 C2:D695H         LINE#         4817
 C2:D695H         LINE#         4821
 C2:D69BH         LINE#         4825
 C2:D6A1H         LINE#         4826
 C2:D6A1H         LINE#         4827
 C2:D6A1H         LINE#         4828
 C2:D6AFH         LINE#         4829
 C2:D6C6H         LINE#         4832
 C2:D6D2H         LINE#         4833
 C2:D6DEH         LINE#         4834
 C2:D6E1H         LINE#         4835
 C2:D6E3H         LINE#         4836
 C2:D6EBH         LINE#         4838
 C2:D6F7H         LINE#         4839
 C2:D72AH         LINE#         4841
 C2:D730H         LINE#         4843
 C2:D735H         LINE#         4844
 C2:D735H         LINE#         4845
  -------         ENDPROC       _WRITE_TEL_TO_PHONE

  -------         PROC BANK=2   _FULL_BUF_NUM_TEL
  D:002CH         SYMBOL        buf
  -------         DO            
  X:1BC7H         SYMBOL        i
  X:1BC8H         SYMBOL        j
  -------         ENDDO         
 C2:E0FCH         LINE#         4847
 C2:E102H         LINE#         4848
BL51 BANKED LINKER/LOCATER V6.22            10/13/2015  11:10:35  PAGE 139


 C2:E102H         LINE#         4856
 C2:E128H         LINE#         4857
 C2:E165H         LINE#         4858
  -------         ENDPROC       _FULL_BUF_NUM_TEL

  -------         PROC BANK=2   _FULL_BUF_NUM_TEL2
  D:002CH         SYMBOL        buf
  -------         DO            
  X:1BC7H         SYMBOL        i
  X:1BC8H         SYMBOL        j
  -------         ENDDO         
 C2:DCEFH         LINE#         4859
 C2:DCF5H         LINE#         4860
 C2:DCF5H         LINE#         4868
 C2:DD12H         LINE#         4871
 C2:DD5FH         LINE#         4873
 C2:DD90H         LINE#         4874
  -------         ENDPROC       _FULL_BUF_NUM_TEL2

  -------         PROC BANK=2   RESTARTTOLOADER
  -------         DO            
  D:0007H         SYMBOL        i
  D:002BH         SYMBOL        pwrite
  D:0004H         SYMBOL        pBeginAddr
  -------         ENDDO         
 C2:D580H         LINE#         4883
 C2:D580H         LINE#         4884
 C2:D580H         LINE#         4885
 C2:D582H         LINE#         4886
 C2:D586H         LINE#         4889
 C2:D58AH         LINE#         4892
 C2:D5A1H         LINE#         4893
 C2:D5B4H         LINE#         4894
 C2:D5CCH         LINE#         4895
 C2:D5D2H         LINE#         4896
 C2:D5D2H         LINE#         4897
 C2:D5DFH         LINE#         4898
 C2:D5EBH         LINE#         4899
 C2:D5F8H         LINE#         4900
 C2:D5FBH         LINE#         4901
 C2:D5FBH         LINE#         4902
 C2:D5FEH         LINE#         4903
 C2:D5FEH         LINE#         4904
 C2:D603H         LINE#         4905
 C2:D606H         LINE#         4906
 C2:D60EH         LINE#         4910
 C2:D610H         LINE#         4911
 C2:D613H         LINE#         4912
 C2:D616H         LINE#         4913
 C2:D619H         LINE#         4914
 C2:D61CH         LINE#         4916
 C2:D61FH         LINE#         4917
 C2:D622H         LINE#         4918
 C2:D629H         LINE#         4919
 C2:D62CH         LINE#         4920
 C2:D62FH         LINE#         4922
 C2:D64DH         LINE#         4923
 C2:D650H         LINE#         4924
 C2:D653H         LINE#         4927
 C2:D659H         LINE#         4928
 C2:D65CH         LINE#         4929
  -------         ENDPROC       RESTARTTOLOADER
  -------         ENDMOD        SIEM_SMS

  -------         MODULE        CONFIG
BL51 BANKED LINKER/LOCATER V6.22            10/13/2015  11:10:35  PAGE 140


  C:0000H         SYMBOL        _ICE_DUMMY_
  D:009DH         PUBLIC        SPI0CKR
  D:0080H         PUBLIC        P0
 C3:8C94H         PUBLIC        ConfigOsc
  D:0090H         PUBLIC        P1
  D:008FH         PUBLIC        PLL0FLT
  D:00FFH         PUBLIC        WDTCN
  D:00A0H         PUBLIC        P2
  D:00BCH         PUBLIC        ADC0CF
  D:00B0H         PUBLIC        P3
  D:00C8H         PUBLIC        P4
 C3:8C54H         PUBLIC        SetOscSlowMode
  D:00E6H         PUBLIC        EIE1
  D:00D8H         PUBLIC        P5
  B:00A8H.7       PUBLIC        EA
  D:00E8H         PUBLIC        P6
  D:00E7H         PUBLIC        EIE2
  D:00F8H         PUBLIC        P7
  D:008EH         PUBLIC        PLL0MUL
  D:00E8H         PUBLIC        ADC0CN
  D:0084H         PUBLIC        SFRPAGE
  D:00A4H         PUBLIC        P0MDOUT
  D:00A5H         PUBLIC        P1MDOUT
  D:00A8H         PUBLIC        IE
  D:00A6H         PUBLIC        P2MDOUT
  D:00A7H         PUBLIC        P3MDOUT
  D:00F6H         PUBLIC        EIP1
  D:009CH         PUBLIC        P4MDOUT
  D:00F7H         PUBLIC        EIP2
  D:00A1H         PUBLIC        CCH0CN
  D:009DH         PUBLIC        P5MDOUT
  D:00FCH         PUBLIC        PCA0CPH0
  D:009EH         PUBLIC        P6MDOUT
  D:00FEH         PUBLIC        PCA0CPH1
  D:009FH         PUBLIC        P7MDOUT
  D:00EAH         PUBLIC        PCA0CPH2
  B:00D8H.6       PUBLIC        CR
  B:0098H.4       PUBLIC        REN0
  D:00FBH         PUBLIC        PCA0CPL0
  D:00A3H         PUBLIC        EMI0CF
  D:00FDH         PUBLIC        PCA0CPL1
  D:00DAH         PUBLIC        PCA0CPM0
  D:00D9H         PUBLIC        PCA0MD
  D:00D8H         PUBLIC        PCA0CN
  D:00E9H         PUBLIC        PCA0CPL2
  D:00DBH         PUBLIC        PCA0CPM1
  D:00DCH         PUBLIC        PCA0CPM2
  D:00B8H         PUBLIC        IP
  D:00E1H         PUBLIC        XBR0
  D:00B9H         PUBLIC        SADEN0
  D:00E2H         PUBLIC        XBR1
  D:00E3H         PUBLIC        XBR2
  D:00D1H         PUBLIC        REF0CN
  D:00A9H         PUBLIC        SADDR0
  D:00BAH         PUBLIC        AMX0CF
  D:00CBH         PUBLIC        RCAP2H
  D:00CBH         PUBLIC        RCAP3H
  D:00CBH         PUBLIC        RCAP4H
  D:00C0H         PUBLIC        SMB0CN
  D:00CAH         PUBLIC        RCAP2L
  D:00CAH         PUBLIC        RCAP3L
  D:00CAH         PUBLIC        RCAP4L
  D:00CFH         PUBLIC        SMB0CR
  D:0089H         PUBLIC        CPT0MD
  D:0088H         PUBLIC        CPT0CN
BL51 BANKED LINKER/LOCATER V6.22            10/13/2015  11:10:35  PAGE 141


  D:00ADH         PUBLIC        P1MDIN
  D:0089H         PUBLIC        PLL0CN
  D:0089H         PUBLIC        CPT1MD
  D:0088H         PUBLIC        CPT1CN
  D:00F8H         PUBLIC        SPI0CN
  D:00C9H         PUBLIC        TMR2CF
  D:00C9H         PUBLIC        TMR3CF
  D:0087H         PUBLIC        PCON
  D:00C9H         PUBLIC        TMR4CF
  C:6D86H         PUBLIC        com_speed
  D:0089H         PUBLIC        TMOD
  D:0088H         PUBLIC        TCON
  D:00BBH         PUBLIC        AMX0SL
  D:00C8H         PUBLIC        TMR2CN
  D:00C8H         PUBLIC        TMR3CN
  D:00C8H         PUBLIC        TMR4CN
  D:0097H         PUBLIC        CLKSEL
  D:008AH         PUBLIC        OSCICN
  B:00A8H.4       PUBLIC        ES0
  B:0098H.0       PUBLIC        RI0
  B:0098H.0       PUBLIC        RI1
  D:008CH         PUBLIC        TH0
  D:00FAH         PUBLIC        PCA0H
  D:008DH         PUBLIC        TH1
  D:008AH         PUBLIC        TL0
  D:00F9H         PUBLIC        PCA0L
  D:008BH         PUBLIC        TL1
  B:00C8H.2       PUBLIC        TR2
  B:00C8H.2       PUBLIC        TR4
  D:00CAH         PUBLIC        RCAP4
  D:00C5H         PUBLIC        ADC0GTH
  D:00C4H         PUBLIC        ADC0GTL
  D:00C7H         PUBLIC        ADC0LTH
 C3:8D06H         PUBLIC        _set_com_speed
  D:00EFH         PUBLIC        RSTSRC
  D:0098H         PUBLIC        SCON0
  D:0098H         PUBLIC        SCON1
  D:00C6H         PUBLIC        ADC0LTL
  D:00C3H         PUBLIC        SMB0ADR
  D:0091H         PUBLIC        SSTA0
  D:00CDH         PUBLIC        TMR2H
  D:009AH         PUBLIC        SPI0CFG
  D:00CDH         PUBLIC        TMR3H
  D:008EH         PUBLIC        CKCON
  D:00CDH         PUBLIC        TMR4H
  D:00CCH         PUBLIC        TMR2L
  D:00CCH         PUBLIC        TMR3L
  D:00CCH         PUBLIC        TMR4L
  D:00B7H         PUBLIC        FLSCL
 C3:89BDH         PUBLIC        config
  D:008DH         PUBLIC        PLL0DIV

  -------         PROC BANK=3   _SET_COM_SPEED
  D:0007H         SYMBOL        N
 C3:8D06H         LINE#         31
 C3:8D06H         LINE#         32
 C3:8D06H         LINE#         33
 C3:8D08H         LINE#         34
 C3:8D0BH         LINE#         35
 C3:8D0DH         LINE#         36
 C3:8D10H         LINE#         37
 C3:8D12H         LINE#         38
 C3:8D28H         LINE#         39
 C3:8D2AH         LINE#         40
 C3:8D2DH         LINE#         41
BL51 BANKED LINKER/LOCATER V6.22            10/13/2015  11:10:35  PAGE 142


 C3:8D2FH         LINE#         42
 C3:8D31H         LINE#         43
 C3:8D33H         LINE#         44
  -------         ENDPROC       _SET_COM_SPEED

  -------         PROC BANK=3   CONFIGOSC
  -------         DO            
  D:0006H         SYMBOL        b
  -------         ENDDO         
 C3:8C94H         LINE#         50
 C3:8C94H         LINE#         51
 C3:8C94H         LINE#         52
 C3:8C97H         LINE#         55
 C3:8C9AH         LINE#         56
 C3:8C9DH         LINE#         57
 C3:8C9FH         LINE#         58
 C3:8CA2H         LINE#         59
 C3:8CA5H         LINE#         60
 C3:8CA8H         LINE#         61
 C3:8CABH         LINE#         62
 C3:8CAEH         LINE#         63
 C3:8CB1H         LINE#         64
 C3:8CB4H         LINE#         65
 C3:8CBFH         LINE#         66
 C3:8CC2H         LINE#         67
 C3:8CC7H         LINE#         68
 C3:8CCAH         LINE#         69
 C3:8CCDH         LINE#         70
  -------         ENDPROC       CONFIGOSC

  -------         PROC BANK=3   CONFIG
 C3:89BDH         LINE#         72
 C3:89BDH         LINE#         98
 C3:89C0H         LINE#         99
 C3:89C3H         LINE#         115
 C3:89C6H         LINE#         116
 C3:89C9H         LINE#         117
 C3:89CCH         LINE#         118
 C3:89CFH         LINE#         126
 C3:89D2H         LINE#         127
 C3:89D5H         LINE#         128
 C3:89D8H         LINE#         129
 C3:89DBH         LINE#         130
 C3:89DEH         LINE#         132
 C3:89E1H         LINE#         133
 C3:89E3H         LINE#         134
 C3:89E5H         LINE#         135
 C3:89E7H         LINE#         137
 C3:89EAH         LINE#         139
 C3:89ECH         LINE#         140
 C3:89EFH         LINE#         157
 C3:89F2H         LINE#         158
 C3:89F5H         LINE#         159
 C3:89F8H         LINE#         161
 C3:89FBH         LINE#         162
 C3:89FEH         LINE#         163
 C3:8A01H         LINE#         169
 C3:8A04H         LINE#         175
 C3:8A07H         LINE#         176
 C3:8A0AH         LINE#         182
 C3:8A0CH         LINE#         183
 C3:8A0FH         LINE#         184
 C3:8A11H         LINE#         185
 C3:8A14H         LINE#         186
 C3:8A17H         LINE#         188
BL51 BANKED LINKER/LOCATER V6.22            10/13/2015  11:10:35  PAGE 143


 C3:8A19H         LINE#         189
 C3:8A1BH         LINE#         190
 C3:8A1EH         LINE#         191
 C3:8A21H         LINE#         223
 C3:8A23H         LINE#         224
 C3:8A26H         LINE#         225
 C3:8A29H         LINE#         226
 C3:8A2CH         LINE#         232
 C3:8A2EH         LINE#         233
 C3:8A30H         LINE#         234
 C3:8A32H         LINE#         235
 C3:8A35H         LINE#         236
 C3:8A38H         LINE#         237
 C3:8A3AH         LINE#         239
 C3:8A3CH         LINE#         244
 C3:8A3FH         LINE#         245
 C3:8A42H         LINE#         246
 C3:8A44H         LINE#         252
 C3:8A46H         LINE#         253
 C3:8A48H         LINE#         254
 C3:8A4AH         LINE#         255
 C3:8A4CH         LINE#         262
 C3:8A4EH         LINE#         263
 C3:8A51H         LINE#         264
 C3:8A54H         LINE#         265
 C3:8A56H         LINE#         266
 C3:8A58H         LINE#         270
 C3:8A5BH         LINE#         271
 C3:8A5DH         LINE#         272
 C3:8A60H         LINE#         275
 C3:8A62H         LINE#         276
 C3:8A64H         LINE#         277
 C3:8A66H         LINE#         280
 C3:8A68H         LINE#         281
 C3:8A6AH         LINE#         282
 C3:8A6CH         LINE#         288
 C3:8A6EH         LINE#         289
 C3:8A71H         LINE#         291
 C3:8A74H         LINE#         292
 C3:8A76H         LINE#         294
 C3:8A79H         LINE#         296
 C3:8A7CH         LINE#         297
 C3:8A7FH         LINE#         307
 C3:8A82H         LINE#         308
 C3:8A85H         LINE#         311
 C3:8A87H         LINE#         312
 C3:8A89H         LINE#         313
 C3:8A8CH         LINE#         314
 C3:8A8FH         LINE#         315
 C3:8A92H         LINE#         316
 C3:8A95H         LINE#         318
 C3:8A98H         LINE#         319
 C3:8A9BH         LINE#         320
 C3:8A9DH         LINE#         321
 C3:8A9FH         LINE#         322
 C3:8AA1H         LINE#         323
 C3:8AA3H         LINE#         324
 C3:8AA5H         LINE#         326
 C3:8AA8H         LINE#         327
 C3:8AABH         LINE#         328
 C3:8AAEH         LINE#         329
 C3:8AB1H         LINE#         330
 C3:8AB4H         LINE#         331
 C3:8AB7H         LINE#         332
 C3:8ABAH         LINE#         354
BL51 BANKED LINKER/LOCATER V6.22            10/13/2015  11:10:35  PAGE 144


 C3:8ABCH         LINE#         355
 C3:8ABFH         LINE#         362
 C3:8AC2H         LINE#         368
 C3:8AC4H         LINE#         369
 C3:8AC7H         LINE#         371
 C3:8ACAH         LINE#         374
 C3:8ACCH         LINE#         375
 C3:8ACFH         LINE#         383
  -------         ENDPROC       CONFIG

  -------         PROC BANK=3   SETOSCSLOWMODE
 C3:8C54H         LINE#         392
 C3:8C54H         LINE#         393
 C3:8C54H         LINE#         394
 C3:8C57H         LINE#         395
 C3:8C59H         LINE#         398
 C3:8C5CH         LINE#         399
 C3:8C5FH         LINE#         400
 C3:8C62H         LINE#         401
 C3:8C67H         LINE#         404
 C3:8C6AH         LINE#         405
 C3:8C6DH         LINE#         406
 C3:8C70H         LINE#         407
 C3:8C73H         LINE#         408
 C3:8C76H         LINE#         411
 C3:8C78H         LINE#         415
 C3:8C7AH         LINE#         419
 C3:8C7CH         LINE#         420
 C3:8C7EH         LINE#         421
 C3:8C80H         LINE#         422
 C3:8C83H         LINE#         423
 C3:8C85H         LINE#         425
 C3:8C89H         LINE#         427
 C3:8C8CH         LINE#         428
 C3:8C8EH         LINE#         429
 C3:8C91H         LINE#         431
 C3:8C93H         LINE#         433
  -------         ENDPROC       SETOSCSLOWMODE
  -------         ENDMOD        CONFIG

  -------         MODULE        INTERRUPT
  C:0000H         SYMBOL        _ICE_DUMMY_
  D:009DH         PUBLIC        SPI0CKR
  D:0080H         PUBLIC        P0
  B:00F8H.0       PUBLIC        SPIEN
  D:0090H         PUBLIC        P1
  D:00FFH         PUBLIC        WDTCN
  D:00A0H         PUBLIC        P2
  D:00B0H         PUBLIC        P3
  D:00C8H         PUBLIC        P4
  D:00D8H         PUBLIC        P5
  D:00E8H         PUBLIC        P6
  D:00CCH         PUBLIC        TMR_VLAN
  D:00F8H         PUBLIC        P7
  D:0084H         PUBLIC        SFRPAGE
  D:009CH         PUBLIC        P4MDOUT
  B:00C8H.0       PUBLIC        P4_0
  B:00A0H.4       PUBLIC        P2_4
  B:00C8H.4       PUBLIC        P4_4
  B:00A0H.6       PUBLIC        P2_6
  B:00B0H.6       PUBLIC        P3_6
  B:00A0H.7       PUBLIC        P2_7
  C:634FH         PUBLIC        Timer3_VLAN_ISR
  X:1D42H         PUBLIC        m_LED
  B:0027H.3       PUBLIC        bTimer2_2x
BL51 BANKED LINKER/LOCATER V6.22            10/13/2015  11:10:35  PAGE 145


  D:00F8H         PUBLIC        SPI0CN
  B:00F8H.7       PUBLIC        SPIF
  C:68F4H         PUBLIC        MAX_ISR
  B:00F8H.6       PUBLIC        WCOL
  X:1D44H         PUBLIC        scount1s
  B:0098H.0       PUBLIC        RI0
  B:00C8H.7       PUBLIC        TF2
  B:0098H.0       PUBLIC        RI1
  B:00C8H.7       PUBLIC        TF3
  B:0098H.1       PUBLIC        TI0
  B:00A8H.2       PUBLIC        EX1
  B:0098H.1       PUBLIC        TI1
  X:1D45H         PUBLIC        count1s
  C:6153H         PUBLIC        AtFlashInt
  B:00C8H.2       PUBLIC        TR3
  D:0099H         PUBLIC        SBUF0
  D:0099H         PUBLIC        SBUF1
  C:59E6H         PUBLIC        Timer2Int
  C:64BBH         PUBLIC        Uart0_intr
  D:009AH         PUBLIC        SPI0CFG
  C:66B5H         PUBLIC        Uart1_intr
  X:1D46H         PUBLIC        Timer2_10x
  B:00F8H.4       PUBLIC        RXOVRN
  D:009BH         PUBLIC        SPI0DAT
  C:696FH         SYMBOL        Com0082
  C:696FH         SYMBOL        L?0131
  C:696FH         SYMBOL        L?0132
  C:6986H         SYMBOL        L?0133
  C:698EH         SYMBOL        L?0134
  C:699CH         SYMBOL        L?0135
  C:699CH         SYMBOL        L?0136
  C:69A8H         SYMBOL        L?0137
  C:69A8H         SYMBOL        L?0138
  C:69B4H         SYMBOL        L?0139
  C:69C3H         SYMBOL        L?0140
  C:69D0H         SYMBOL        L?0141
  C:69D0H         SYMBOL        L?0142
  C:69D7H         SYMBOL        L?0143
  C:69D7H         SYMBOL        L?0144
  -------         PROC          COM0082
  -------         ENDPROC       COM0082
  -------         PROC          UART0_INTR
  C:64BBH         LINE#         30
  C:64C8H         LINE#         32
  C:64CBH         LINE#         33
  C:64CBH         LINE#         34
  C:64CDH         LINE#         36
  C:64D8H         LINE#         37
  C:64D8H         LINE#         38
  C:64EBH         LINE#         39
  C:6500H         LINE#         40
  C:6502H         LINE#         41
  C:6504H         LINE#         42
  C:6504H         LINE#         43
  C:6507H         LINE#         44
  C:6507H         LINE#         45
  C:6509H         LINE#         46
  C:651CH         LINE#         47
  C:652BH         LINE#         48
  C:652BH         LINE#         49
  C:6539H         LINE#         50
  C:6547H         LINE#         51
  C:655AH         LINE#         52
  C:655AH         LINE#         53
  C:655AH         LINE#         54
BL51 BANKED LINKER/LOCATER V6.22            10/13/2015  11:10:35  PAGE 146


  -------         ENDPROC       UART0_INTR
  -------         PROC          UART1_INTR
  C:66B5H         LINE#         56
  C:66C2H         LINE#         58
  C:66C5H         LINE#         59
  C:66C5H         LINE#         60
  C:66C7H         LINE#         62
  C:66D2H         LINE#         63
  C:66D2H         LINE#         64
  C:66E5H         LINE#         65
  C:66FAH         LINE#         66
  C:66FCH         LINE#         67
  C:66FEH         LINE#         68
  C:66FEH         LINE#         69
  C:6701H         LINE#         70
  C:6701H         LINE#         71
  C:6703H         LINE#         72
  C:6713H         LINE#         73
  C:671CH         LINE#         74
  C:671CH         LINE#         75
  C:6722H         LINE#         76
  C:6728H         LINE#         77
  C:6733H         LINE#         78
  C:6733H         LINE#         80
  C:673FH         LINE#         81
  C:6744H         LINE#         83
  C:6744H         LINE#         84
  -------         ENDPROC       UART1_INTR
  -------         PROC          MAX_ISR
  -------         DO            
  B:0026H.4       SYMBOL        B
  D:0017H         SYMBOL        C
  -------         ENDDO         
  C:68F4H         LINE#         86
  C:68FFH         LINE#         92
  C:6902H         LINE#         93
  C:6904H         LINE#         94
  C:6906H         LINE#         95
  C:6909H         LINE#         96
  C:690CH         LINE#         97
  C:690FH         LINE#         98
  C:6912H         LINE#         100
  C:6915H         LINE#         101
  C:691FH         LINE#         102
  C:6925H         LINE#         103
  C:6928H         LINE#         104
  C:6932H         LINE#         105
  C:6934H         LINE#         107
  C:6936H         LINE#         108
  C:6939H         LINE#         109
  C:693CH         LINE#         112
  C:6945H         LINE#         113
  C:6945H         LINE#         114
  C:6948H         LINE#         115
  C:695BH         LINE#         116
  C:6966H         LINE#         117
  C:6966H         LINE#         118
  -------         ENDPROC       MAX_ISR
  -------         PROC          TIMER2INT
  -------         DO            
  D:000FH         SYMBOL        i
  -------         ENDDO         
  C:59E6H         LINE#         120
  C:59F3H         LINE#         124
  C:59F5H         LINE#         129
BL51 BANKED LINKER/LOCATER V6.22            10/13/2015  11:10:35  PAGE 147


  C:59FBH         LINE#         132
  C:5A05H         LINE#         137
  C:5A07H         LINE#         139
  C:5A17H         LINE#         144
  C:5A1AH         LINE#         173
  C:5A1DH         LINE#         175
  C:5A3FH         LINE#         176
  C:5A5EH         LINE#         177
  C:5A7CH         LINE#         179
  C:5A97H         LINE#         181
  C:5AA0H         LINE#         182
  C:5AA0H         LINE#         183
  C:5AA2H         LINE#         185
  C:5AA5H         LINE#         187
  C:5AADH         LINE#         188
  C:5AADH         LINE#         189
  C:5AAFH         LINE#         191
  C:5AB6H         LINE#         193
  C:5AC4H         LINE#         194
  C:5AD2H         LINE#         196
  C:5AE1H         LINE#         197
  C:5AE1H         LINE#         199
  C:5AE9H         LINE#         201
  C:5AF5H         LINE#         203
  C:5AFBH         LINE#         204
  C:5B01H         LINE#         205
  C:5B07H         LINE#         206
  C:5B0DH         LINE#         207
  C:5B13H         LINE#         210
  C:5B15H         LINE#         211
  C:5B24H         LINE#         213
  C:5B2AH         LINE#         215
  C:5B30H         LINE#         217
  C:5B38H         LINE#         218
  C:5B40H         LINE#         219
  C:5B48H         LINE#         220
  C:5B50H         LINE#         221
  C:5B58H         LINE#         223
  C:5B5EH         LINE#         224
  C:5B5EH         LINE#         226
  C:5B66H         LINE#         228
  C:5B74H         LINE#         229
  C:5B7AH         LINE#         231
  C:5B80H         LINE#         233
  C:5B99H         LINE#         235
  C:5B9FH         LINE#         236
  -------         ENDPROC       TIMER2INT
  -------         PROC          ATFLASHINT
  C:6153H         LINE#         238
  C:615EH         LINE#         240
  C:6160H         LINE#         241
  C:6162H         LINE#         243
  C:6168H         LINE#         244
  C:6168H         LINE#         245
  C:616AH         LINE#         247
  C:61E2H         LINE#         248
  C:61E2H         LINE#         256
  C:61E2H         LINE#         257
  C:61E2H         LINE#         258
  C:61E2H         LINE#         259
  C:61E6H         LINE#         260
  C:61E8H         LINE#         262
  C:61E8H         LINE#         263
  C:61EFH         LINE#         264
  C:61FAH         LINE#         267
BL51 BANKED LINKER/LOCATER V6.22            10/13/2015  11:10:35  PAGE 148


  C:61FAH         LINE#         268
  C:61FAH         LINE#         269
  C:61FAH         LINE#         270
  C:61FCH         LINE#         276
  C:61FCH         LINE#         277
  C:61FCH         LINE#         278
  C:61FEH         LINE#         280
  C:61FEH         LINE#         281
  C:6203H         LINE#         282
  C:6203H         LINE#         283
  C:6203H         LINE#         284
  C:6203H         LINE#         285
  C:6203H         LINE#         286
  C:6205H         LINE#         298
  C:6205H         LINE#         299
  C:6205H         LINE#         300
  C:6205H         LINE#         301
  C:620BH         LINE#         302
  C:620DH         LINE#         304
  C:620DH         LINE#         305
  C:620DH         LINE#         306
  C:620DH         LINE#         307
  C:620DH         LINE#         308
  C:620DH         LINE#         309
  C:6210H         LINE#         310
  C:6213H         LINE#         312
  C:6213H         LINE#         313
  C:6222H         LINE#         314
  C:622CH         LINE#         316
  C:622CH         LINE#         317
  C:622CH         LINE#         318
  C:622CH         LINE#         319
  C:622CH         LINE#         320
  C:622EH         LINE#         328
  C:622EH         LINE#         329
  C:622EH         LINE#         330
  C:622EH         LINE#         331
  C:623EH         LINE#         332
  C:6240H         LINE#         334
  C:6240H         LINE#         335
  C:6242H         LINE#         336
  C:6244H         LINE#         337
  C:6249H         LINE#         340
  C:6249H         LINE#         341
  C:6250H         LINE#         342
  C:6255H         LINE#         343
  C:625BH         LINE#         344
  C:625DH         LINE#         346
  C:625DH         LINE#         347
  C:6260H         LINE#         348
  C:6277H         LINE#         349
  C:6277H         LINE#         352
  C:6277H         LINE#         354
  C:6277H         LINE#         356
  C:6279H         LINE#         357
  C:6279H         LINE#         358
  -------         ENDPROC       ATFLASHINT
  -------         PROC          TIMER3_VLAN_ISR
  -------         DO            
  D:001FH         SYMBOL        vl_cnt
  -------         ENDDO         
  C:634FH         LINE#         360
  C:6356H         LINE#         364
  C:635AH         LINE#         366
  C:6377H         LINE#         367
BL51 BANKED LINKER/LOCATER V6.22            10/13/2015  11:10:35  PAGE 149


  C:6377H         LINE#         369
  C:6377H         LINE#         370
  C:6377H         LINE#         371
  C:637AH         LINE#         372
  C:637DH         LINE#         373
  C:6385H         LINE#         375
  C:6385H         LINE#         376
  C:6385H         LINE#         377
  C:6388H         LINE#         378
  C:638BH         LINE#         379
  C:6393H         LINE#         381
  C:6393H         LINE#         382
  C:639DH         LINE#         383
  C:63A0H         LINE#         384
  C:63ADH         LINE#         386
  C:63ADH         LINE#         387
  C:63B2H         LINE#         388
  C:63B6H         LINE#         392
  C:63B6H         LINE#         393
  C:63B6H         LINE#         394
  C:63B9H         LINE#         395
  C:63BCH         LINE#         396
  C:63BCH         LINE#         397
  C:63BFH         LINE#         398
  C:63CCH         LINE#         400
  C:63CCH         LINE#         401
  C:63CCH         LINE#         402
  C:63CFH         LINE#         403
  C:63D5H         LINE#         404
  C:63D5H         LINE#         405
  C:63D8H         LINE#         406
  C:63DEH         LINE#         407
  C:63E8H         LINE#         408
  C:63EBH         LINE#         409
  C:63F8H         LINE#         411
  C:63F8H         LINE#         412
  C:63F8H         LINE#         413
  C:63FBH         LINE#         414
  C:63FDH         LINE#         415
  C:6408H         LINE#         417
  C:6408H         LINE#         418
  -------         ENDPROC       TIMER3_VLAN_ISR
  -------         ENDMOD        INTERRUPT

  -------         MODULE        RMODEM
  C:0000H         SYMBOL        _ICE_DUMMY_
  D:0080H         PUBLIC        P0
  D:0090H         PUBLIC        P1
  D:00A0H         PUBLIC        P2
  D:00B0H         PUBLIC        P3
 C1:9C56H         PUBLIC        check_gap_rmodem
  D:00C8H         PUBLIC        P4
  D:00D8H         PUBLIC        P5
  D:00E8H         PUBLIC        P6
  D:00F8H         PUBLIC        P7
  X:1CE5H         PUBLIC        context_RM
  D:0084H         PUBLIC        SFRPAGE
  C:2012H         PUBLIC        ID_RM
 C1:9C3BH         PUBLIC        fail_reset_rmodem
  B:0026H.7       PUBLIC        FastMode_RM
  X:1CF4H         PUBLIC        StateRM
 C1:9C20H         PUBLIC        free_input_stream
 C1:9664H         PUBLIC        free_output_stream
  X:1CF5H         PUBLIC        sn_SMS
  X:1D01H         PUBLIC        acc_crc_RM
BL51 BANKED LINKER/LOCATER V6.22            10/13/2015  11:10:35  PAGE 150


  X:1D03H         PUBLIC        fail_cnt_RM
  X:1D04H         PUBLIC        cnt_RM
  X:1D05H         PUBLIC        time_wait_RM
  B:0027H.0       PUBLIC        RM_Enable
  X:1D06H         PUBLIC        M
 C1:96D9H         PUBLIC        _get_sn_SMS
  D:00EFH         PUBLIC        RSTSRC
  X:1D0CH         PUBLIC        StRM
 C1:8000H         PUBLIC        automat_rmodem
  D:005AH         PUBLIC        pcontext
  X:1D0DH         PUBLIC        sn_RM_inc
 C1:8E93H         SYMBOL        Com0119
 C1:8E93H         SYMBOL        L?0282
 C1:8E93H         SYMBOL        L?0283
 C1:8EABH         SYMBOL        L?0284
 C1:8EABH         SYMBOL        L?0285
 C1:8ECAH         SYMBOL        L?0286
 C1:8ECAH         SYMBOL        L?0287
 C1:8ED1H         SYMBOL        L?0288
 C1:8ED5H         SYMBOL        L?0289
 C1:8EDDH         SYMBOL        L?0290
 C1:8EE0H         SYMBOL        L?0291
 C1:8EE6H         SYMBOL        L?0292
 C1:8EE7H         SYMBOL        L?0293
 C1:8EEEH         SYMBOL        L?0294
 C1:8F05H         SYMBOL        L?0295
 C1:8F0DH         SYMBOL        L?0296
 C1:8F34H         SYMBOL        L?0297
 C1:8F3EH         SYMBOL        L?0298
 C1:8F49H         SYMBOL        L?0299
 C1:8F5BH         SYMBOL        L?0300
 C1:8F5BH         SYMBOL        L?0301
 C1:8F66H         SYMBOL        L?0302
 C1:8F68H         SYMBOL        L?0303
 C1:8F70H         SYMBOL        L?0304
 C1:8F70H         SYMBOL        L?0305
 C1:8F7AH         SYMBOL        L?0306
 C1:8F7AH         SYMBOL        L?0307
 C1:8F84H         SYMBOL        L?0308
 C1:8F84H         SYMBOL        L?0309
 C1:8F8CH         SYMBOL        L?0310
 C1:8F8DH         SYMBOL        L?0311
 C1:8F96H         SYMBOL        L?0313
 C1:8F96H         SYMBOL        L?0314
 C1:8F9EH         SYMBOL        L?0315
 C1:8FAAH         SYMBOL        L?0316
 C1:8FAAH         SYMBOL        L?0317
 C1:8FB2H         SYMBOL        L?0318
 C1:8FB2H         SYMBOL        L?0319
 C1:8FB9H         SYMBOL        L?0320
 C1:8FC3H         SYMBOL        L?0321
 C1:8FC3H         SYMBOL        L?0322
 C1:8FCAH         SYMBOL        L?0323
 C1:8FD4H         SYMBOL        L?0324
  -------         PROC          COM0119
  -------         ENDPROC       COM0119

  -------         PROC BANK=1   _GET_SN_SMS
  D:0007H         SYMBOL        N
 C1:96D9H         LINE#         60
 C1:96D9H         LINE#         61
 C1:96D9H         LINE#         62
 C1:9705H         LINE#         63
 C1:9705H         LINE#         64
 C1:970AH         LINE#         65
BL51 BANKED LINKER/LOCATER V6.22            10/13/2015  11:10:35  PAGE 151


 C1:970FH         LINE#         66
 C1:9714H         LINE#         67
 C1:9719H         LINE#         68
 C1:971EH         LINE#         69
 C1:9723H         LINE#         70
 C1:9728H         LINE#         71
 C1:972DH         LINE#         72
 C1:9732H         LINE#         73
 C1:9737H         LINE#         74
 C1:973CH         LINE#         75
 C1:9744H         LINE#         76
 C1:9746H         LINE#         77
 C1:9746H         LINE#         78
  -------         ENDPROC       _GET_SN_SMS

  -------         PROC BANK=1   FREE_INPUT_STREAM
 C1:9C20H         LINE#         95
 C1:9C20H         LINE#         96
 C1:9C20H         LINE#         97
 C1:9C28H         LINE#         98
 C1:9C31H         LINE#         99
 C1:9C31H         LINE#         100
 C1:9C31H         LINE#         101
 C1:9C31H         LINE#         102
 C1:9C34H         LINE#         103
 C1:9C35H         LINE#         105
 C1:9C3AH         LINE#         106
  -------         ENDPROC       FREE_INPUT_STREAM

  -------         PROC BANK=1   FREE_OUTPUT_STREAM
 C1:9664H         LINE#         108
 C1:9664H         LINE#         109
 C1:9664H         LINE#         110
 C1:966FH         LINE#         111
 C1:9674H         LINE#         112
 C1:9681H         LINE#         113
 C1:9681H         LINE#         114
 C1:968BH         LINE#         115
 C1:968BH         LINE#         116
 C1:9690H         LINE#         117
 C1:9697H         LINE#         118
 C1:969AH         LINE#         119
 C1:969CH         LINE#         121
 C1:96ABH         LINE#         122
 C1:96ABH         LINE#         123
 C1:96B0H         LINE#         124
 C1:96B7H         LINE#         125
 C1:96BAH         LINE#         126
 C1:96BAH         LINE#         127
 C1:96BCH         LINE#         128
 C1:96BCH         LINE#         129
 C1:96C5H         LINE#         130
 C1:96C5H         LINE#         131
 C1:96C8H         LINE#         132
 C1:96D1H         LINE#         133
 C1:96D3H         LINE#         134
 C1:96D7H         LINE#         135
 C1:96D7H         LINE#         136
 C1:96D8H         LINE#         137
  -------         ENDPROC       FREE_OUTPUT_STREAM

  -------         PROC BANK=1   FAIL_RESET_RMODEM
 C1:9C3BH         LINE#         139
 C1:9C3BH         LINE#         140
 C1:9C3BH         LINE#         141
BL51 BANKED LINKER/LOCATER V6.22            10/13/2015  11:10:35  PAGE 152


 C1:9C3EH         LINE#         142
 C1:9C3EH         LINE#         143
 C1:9C3EH         LINE#         144
 C1:9C3EH         LINE#         145
 C1:9C3EH         LINE#         146
 C1:9C41H         LINE#         147
 C1:9C41H         LINE#         148
 C1:9C44H         LINE#         149
 C1:9C44H         LINE#         150
 C1:9C49H         LINE#         151
 C1:9C4CH         LINE#         152
 C1:9C4FH         LINE#         153
 C1:9C4FH         LINE#         154
 C1:9C52H         LINE#         155
 C1:9C55H         LINE#         156
  -------         ENDPROC       FAIL_RESET_RMODEM

  -------         PROC BANK=1   CHECK_GAP_RMODEM
 C1:9C56H         LINE#         158
 C1:9C56H         LINE#         159
 C1:9C56H         LINE#         160
 C1:9C5FH         LINE#         162
 C1:9C66H         LINE#         163
 C1:9C69H         LINE#         164
  -------         ENDPROC       CHECK_GAP_RMODEM
 C1:8826H         SYMBOL        L?0312

  -------         PROC BANK=1   AUTOMAT_RMODEM
  -------         DO            
  D:0028H         SYMBOL        c
  D:0029H         SYMBOL        i
  -------         ENDDO         
 C1:8000H         LINE#         166
 C1:8000H         LINE#         167
 C1:8000H         LINE#         171
 C1:807DH         LINE#         172
 C1:807DH         LINE#         173
 C1:807DH         LINE#         174
 C1:807DH         LINE#         179
 C1:807DH         LINE#         180
 C1:8085H         LINE#         181
 C1:808DH         LINE#         182
 C1:808DH         LINE#         183
 C1:808FH         LINE#         184
 C1:8095H         LINE#         185
 C1:8096H         LINE#         186
 C1:8096H         LINE#         187
 C1:809EH         LINE#         188
 C1:809EH         LINE#         189
 C1:809EH         LINE#         190
 C1:809EH         LINE#         191
 C1:80A1H         LINE#         192
 C1:80A7H         LINE#         193
 C1:80A7H         LINE#         194
 C1:80A8H         LINE#         196
 C1:80A8H         LINE#         197
 C1:80B4H         LINE#         198
 C1:80C5H         LINE#         199
 C1:80CCH         LINE#         200
 C1:80CCH         LINE#         201
 C1:80D5H         LINE#         202
 C1:80DBH         LINE#         203
 C1:80DEH         LINE#         204
 C1:80E1H         LINE#         205
 C1:80E1H         LINE#         206
BL51 BANKED LINKER/LOCATER V6.22            10/13/2015  11:10:35  PAGE 153


 C1:80ECH         LINE#         207
 C1:80ECH         LINE#         208
 C1:80ECH         LINE#         209
 C1:80ECH         LINE#         210
 C1:80EFH         LINE#         211
 C1:80EFH         LINE#         212
 C1:80F0H         LINE#         214
 C1:80F0H         LINE#         215
 C1:80FCH         LINE#         216
 C1:80FCH         LINE#         217
 C1:8101H         LINE#         218
 C1:8107H         LINE#         219
 C1:8108H         LINE#         220
 C1:8108H         LINE#         221
 C1:8114H         LINE#         222
 C1:8114H         LINE#         223
 C1:811AH         LINE#         224
 C1:811AH         LINE#         225
 C1:811AH         LINE#         226
 C1:811DH         LINE#         228
 C1:811DH         LINE#         229
 C1:8125H         LINE#         230
 C1:8134H         LINE#         231
 C1:8134H         LINE#         232
 C1:8134H         LINE#         233
 C1:8134H         LINE#         235
 C1:8134H         LINE#         236
 C1:8136H         LINE#         237
 C1:8139H         LINE#         238
 C1:813CH         LINE#         239
 C1:8145H         LINE#         240
 C1:814BH         LINE#         241
 C1:8151H         LINE#         242
 C1:8152H         LINE#         244
 C1:8152H         LINE#         245
 C1:8158H         LINE#         246
 C1:8159H         LINE#         247
 C1:8159H         LINE#         248
 C1:8159H         LINE#         250
 C1:8159H         LINE#         251
 C1:8161H         LINE#         252
 C1:8161H         LINE#         253
 C1:8177H         LINE#         254
 C1:8177H         LINE#         255
 C1:8177H         LINE#         256
 C1:8177H         LINE#         258
 C1:8177H         LINE#         259
 C1:8177H         LINE#         260
 C1:8177H         LINE#         261
 C1:8178H         LINE#         262
 C1:817BH         LINE#         263
 C1:817FH         LINE#         264
 C1:8185H         LINE#         265
 C1:8186H         LINE#         267
 C1:8186H         LINE#         268
 C1:8186H         LINE#         269
 C1:8189H         LINE#         270
 C1:8189H         LINE#         271
 C1:8189H         LINE#         273
 C1:8189H         LINE#         274
 C1:8189H         LINE#         275
 C1:8191H         LINE#         276
 C1:8191H         LINE#         277
 C1:8196H         LINE#         278
 C1:8196H         LINE#         279
BL51 BANKED LINKER/LOCATER V6.22            10/13/2015  11:10:35  PAGE 154


 C1:81A4H         LINE#         280
 C1:81A4H         LINE#         281
 C1:81ABH         LINE#         282
 C1:81ACH         LINE#         283
 C1:81ACH         LINE#         284
 C1:81B1H         LINE#         285
 C1:81B5H         LINE#         286
 C1:81B5H         LINE#         287
 C1:81B8H         LINE#         288
 C1:81B8H         LINE#         289
 C1:81C0H         LINE#         290
 C1:81C3H         LINE#         291
 C1:81C6H         LINE#         293
 C1:81C6H         LINE#         294
 C1:81CEH         LINE#         295
 C1:81CEH         LINE#         298
 C1:8201H         LINE#         299
 C1:8201H         LINE#         300
 C1:8201H         LINE#         301
 C1:8211H         LINE#         302
 C1:8221H         LINE#         303
 C1:8229H         LINE#         304
 C1:8229H         LINE#         306
 C1:8229H         LINE#         307
 C1:8229H         LINE#         308
 C1:8229H         LINE#         309
 C1:8233H         LINE#         310
 C1:823EH         LINE#         311
 C1:8240H         LINE#         313
 C1:8240H         LINE#         314
 C1:8243H         LINE#         315
 C1:8243H         LINE#         316
 C1:824BH         LINE#         317
 C1:8251H         LINE#         318
 C1:8254H         LINE#         319
 C1:8254H         LINE#         320
 C1:8254H         LINE#         321
 C1:8254H         LINE#         322
 C1:8264H         LINE#         323
 C1:8266H         LINE#         325
 C1:8266H         LINE#         326
 C1:8272H         LINE#         327
 C1:8272H         LINE#         328
 C1:8272H         LINE#         329
 C1:8274H         LINE#         331
 C1:8274H         LINE#         332
 C1:8274H         LINE#         333
 C1:8274H         LINE#         334
 C1:8281H         LINE#         335
 C1:8283H         LINE#         337
 C1:8283H         LINE#         338
 C1:8283H         LINE#         339
 C1:8283H         LINE#         340
 C1:828FH         LINE#         341
 C1:8291H         LINE#         343
 C1:8291H         LINE#         344
 C1:82A1H         LINE#         345
 C1:82A1H         LINE#         346
 C1:82A7H         LINE#         347
 C1:82A7H         LINE#         348
 C1:82A7H         LINE#         349
 C1:82AAH         LINE#         350
 C1:82ADH         LINE#         352
 C1:82ADH         LINE#         353
 C1:82B5H         LINE#         354
BL51 BANKED LINKER/LOCATER V6.22            10/13/2015  11:10:35  PAGE 155


 C1:82B5H         LINE#         355
 C1:82BDH         LINE#         356
 C1:82BDH         LINE#         357
 C1:82BDH         LINE#         358
 C1:82C3H         LINE#         359
 C1:82C4H         LINE#         360
 C1:82C4H         LINE#         361
 C1:82E3H         LINE#         362
 C1:82E4H         LINE#         364
 C1:82E4H         LINE#         365
 C1:82E4H         LINE#         366
 C1:82ECH         LINE#         367
 C1:82ECH         LINE#         368
 C1:82F4H         LINE#         369
 C1:82F4H         LINE#         370
 C1:82FBH         LINE#         371
 C1:82FCH         LINE#         372
 C1:82FCH         LINE#         373
 C1:8307H         LINE#         374
 C1:830DH         LINE#         375
 C1:8317H         LINE#         376
 C1:831AH         LINE#         377
 C1:831DH         LINE#         379
 C1:831DH         LINE#         380
 C1:8325H         LINE#         381
 C1:832AH         LINE#         382
 C1:833EH         LINE#         383
 C1:833EH         LINE#         384
 C1:8347H         LINE#         385
 C1:8347H         LINE#         386
 C1:8349H         LINE#         387
 C1:834FH         LINE#         388
 C1:834FH         LINE#         389
 C1:8350H         LINE#         391
 C1:8350H         LINE#         392
 C1:8357H         LINE#         393
 C1:835CH         LINE#         394
 C1:835CH         LINE#         395
 C1:8365H         LINE#         396
 C1:8365H         LINE#         397
 C1:8367H         LINE#         398
 C1:836DH         LINE#         399
 C1:836DH         LINE#         400
 C1:836EH         LINE#         402
 C1:836EH         LINE#         403
 C1:836EH         LINE#         404
 C1:8376H         LINE#         405
 C1:8376H         LINE#         406
 C1:8388H         LINE#         407
 C1:8395H         LINE#         408
 C1:8395H         LINE#         409
 C1:8397H         LINE#         410
 C1:839BH         LINE#         411
 C1:83A0H         LINE#         412
 C1:83A3H         LINE#         413
 C1:83B8H         LINE#         414
 C1:83CCH         LINE#         415
 C1:83CCH         LINE#         416
 C1:83CFH         LINE#         418
 C1:83CFH         LINE#         419
 C1:83D7H         LINE#         420
 C1:83D7H         LINE#         421
 C1:83DAH         LINE#         422
 C1:83E1H         LINE#         423
 C1:83EBH         LINE#         424
BL51 BANKED LINKER/LOCATER V6.22            10/13/2015  11:10:35  PAGE 156


 C1:83EBH         LINE#         425
 C1:83EEH         LINE#         426
 C1:83FEH         LINE#         428
 C1:8407H         LINE#         429
 C1:8407H         LINE#         431
 C1:840DH         LINE#         432
 C1:8414H         LINE#         433
 C1:8414H         LINE#         434
 C1:8420H         LINE#         435
 C1:8420H         LINE#         436
 C1:8436H         LINE#         438
 C1:8442H         LINE#         439
 C1:8448H         LINE#         440
 C1:8448H         LINE#         441
 C1:8448H         LINE#         442
 C1:8449H         LINE#         444
 C1:8449H         LINE#         445
 C1:8451H         LINE#         446
 C1:8451H         LINE#         447
 C1:8454H         LINE#         448
 C1:845EH         LINE#         449
 C1:845EH         LINE#         450
 C1:8464H         LINE#         451
 C1:847AH         LINE#         453
 C1:8486H         LINE#         454
 C1:848CH         LINE#         455
 C1:848CH         LINE#         456
 C1:848DH         LINE#         458
 C1:848DH         LINE#         459
 C1:849BH         LINE#         460
 C1:849EH         LINE#         461
 C1:84A1H         LINE#         463
 C1:84A1H         LINE#         464
 C1:84ADH         LINE#         465
 C1:84ADH         LINE#         466
 C1:84B0H         LINE#         467
 C1:84B3H         LINE#         468
 C1:84C1H         LINE#         469
 C1:84C1H         LINE#         470
 C1:84C4H         LINE#         471
 C1:84C4H         LINE#         472
 C1:84C4H         LINE#         473
 C1:84C4H         LINE#         474
 C1:84C4H         LINE#         475
 C1:84C7H         LINE#         476
 C1:84C7H         LINE#         477
 C1:84CCH         LINE#         478
 C1:84CCH         LINE#         479
 C1:84CEH         LINE#         483
 C1:84CEH         LINE#         484
 C1:84D3H         LINE#         485
 C1:84ECH         LINE#         486
 C1:84ECH         LINE#         487
 C1:84ECH         LINE#         488
 C1:84F9H         LINE#         489
 C1:84FCH         LINE#         490
 C1:8502H         LINE#         491
 C1:850BH         LINE#         492
 C1:850BH         LINE#         493
 C1:8511H         LINE#         494
 C1:8511H         LINE#         495
 C1:8517H         LINE#         496
 C1:8517H         LINE#         497
 C1:851AH         LINE#         498
 C1:851FH         LINE#         499
BL51 BANKED LINKER/LOCATER V6.22            10/13/2015  11:10:35  PAGE 157


 C1:8525H         LINE#         500
 C1:8526H         LINE#         501
 C1:8526H         LINE#         502
 C1:852BH         LINE#         503
 C1:852DH         LINE#         505
 C1:852DH         LINE#         506
 C1:8533H         LINE#         507
 C1:8537H         LINE#         508
 C1:8537H         LINE#         510
 C1:8562H         LINE#         511
 C1:856EH         LINE#         512
 C1:8572H         LINE#         513
 C1:8572H         LINE#         514
 C1:8572H         LINE#         515
 C1:8575H         LINE#         517
 C1:8575H         LINE#         518
 C1:8575H         LINE#         519
 C1:8578H         LINE#         520
 C1:857EH         LINE#         521
 C1:857FH         LINE#         523
 C1:857FH         LINE#         524
 C1:8582H         LINE#         525
 C1:8582H         LINE#         526
 C1:8582H         LINE#         527
 C1:8582H         LINE#         529
 C1:8582H         LINE#         530
 C1:8582H         LINE#         531
 C1:8582H         LINE#         532
 C1:858AH         LINE#         533
 C1:858FH         LINE#         534
 C1:8592H         LINE#         535
 C1:859FH         LINE#         536
 C1:85ADH         LINE#         537
 C1:85ADH         LINE#         538
 C1:85B4H         LINE#         539
 C1:85BBH         LINE#         540
 C1:85BBH         LINE#         541
 C1:85BBH         LINE#         542
 C1:85BBH         LINE#         547
 C1:85BBH         LINE#         548
 C1:85C4H         LINE#         549
 C1:85C6H         LINE#         550
 C1:85C6H         LINE#         551
 C1:85C9H         LINE#         552
 C1:85D2H         LINE#         553
 C1:85D8H         LINE#         554
 C1:85E5H         LINE#         558
 C1:85E5H         LINE#         559
 C1:85EEH         LINE#         560
 C1:85F0H         LINE#         561
 C1:85F0H         LINE#         562
 C1:85F3H         LINE#         563
 C1:85FCH         LINE#         564
 C1:85FCH         LINE#         565
 C1:8602H         LINE#         566
 C1:8603H         LINE#         568
 C1:8603H         LINE#         569
 C1:8603H         LINE#         570
 C1:8603H         LINE#         571
 C1:8603H         LINE#         572
 C1:860CH         LINE#         573
 C1:8611H         LINE#         574
 C1:8617H         LINE#         575
 C1:8618H         LINE#         577
 C1:8618H         LINE#         578
BL51 BANKED LINKER/LOCATER V6.22            10/13/2015  11:10:35  PAGE 158


 C1:8620H         LINE#         579
 C1:8623H         LINE#         580
 C1:8626H         LINE#         581
 C1:862CH         LINE#         582
 C1:862DH         LINE#         584
 C1:862DH         LINE#         585
 C1:8635H         LINE#         586
 C1:863DH         LINE#         587
 C1:8646H         LINE#         588
 C1:8648H         LINE#         589
 C1:8648H         LINE#         590
 C1:8648H         LINE#         591
 C1:864AH         LINE#         593
 C1:864AH         LINE#         594
 C1:8653H         LINE#         595
 C1:865AH         LINE#         596
 C1:865AH         LINE#         597
 C1:865DH         LINE#         598
 C1:865DH         LINE#         599
 C1:8662H         LINE#         600
 C1:8668H         LINE#         601
 C1:8669H         LINE#         602
 C1:8669H         LINE#         603
 C1:867BH         LINE#         604
 C1:867BH         LINE#         606
 C1:867EH         LINE#         607
 C1:8681H         LINE#         608
 C1:8687H         LINE#         609
 C1:868BH         LINE#         610
 C1:8691H         LINE#         611
 C1:8691H         LINE#         612
 C1:8692H         LINE#         613
 C1:8692H         LINE#         614
 C1:869BH         LINE#         615
 C1:869FH         LINE#         616
 C1:869FH         LINE#         617
 C1:86A3H         LINE#         618
 C1:86A3H         LINE#         619
 C1:86A8H         LINE#         620
 C1:86AEH         LINE#         621
 C1:86AEH         LINE#         622
 C1:86B7H         LINE#         623
 C1:86BDH         LINE#         624
 C1:86BEH         LINE#         625
 C1:86BEH         LINE#         626
 C1:86C8H         LINE#         628
 C1:86CFH         LINE#         629
 C1:86D9H         LINE#         630
 C1:86E3H         LINE#         631
 C1:86E6H         LINE#         632
 C1:86FEH         LINE#         633
 C1:870AH         LINE#         634
 C1:8711H         LINE#         635
 C1:8718H         LINE#         637
 C1:8718H         LINE#         638
 C1:8718H         LINE#         639
 C1:8718H         LINE#         640
 C1:8718H         LINE#         641
 C1:8718H         LINE#         642
 C1:8725H         LINE#         643
 C1:8728H         LINE#         644
 C1:8733H         LINE#         645
 C1:8733H         LINE#         646
 C1:8733H         LINE#         647
 C1:8733H         LINE#         648
BL51 BANKED LINKER/LOCATER V6.22            10/13/2015  11:10:35  PAGE 159


 C1:8736H         LINE#         650
 C1:8736H         LINE#         651
 C1:873FH         LINE#         652
 C1:8746H         LINE#         653
 C1:8750H         LINE#         655
 C1:8750H         LINE#         656
 C1:8750H         LINE#         657
 C1:8750H         LINE#         658
 C1:8750H         LINE#         659
 C1:8750H         LINE#         660
 C1:875DH         LINE#         661
 C1:8760H         LINE#         662
 C1:876BH         LINE#         663
 C1:8775H         LINE#         664
 C1:8777H         LINE#         665
 C1:877DH         LINE#         666
 C1:877EH         LINE#         668
 C1:877EH         LINE#         669
 C1:8787H         LINE#         670
 C1:878DH         LINE#         671
 C1:8791H         LINE#         672
 C1:8797H         LINE#         673
 C1:8798H         LINE#         675
 C1:8798H         LINE#         676
 C1:87A1H         LINE#         677
 C1:87A7H         LINE#         678
 C1:87ADH         LINE#         679
 C1:87B3H         LINE#         680
 C1:87B4H         LINE#         682
 C1:87B4H         LINE#         683
 C1:87B7H         LINE#         684
 C1:87B7H         LINE#         685
 C1:87BCH         LINE#         686
 C1:87BFH         LINE#         687
 C1:87C2H         LINE#         688
 C1:87C2H         LINE#         689
 C1:87C5H         LINE#         690
 C1:87CAH         LINE#         691
 C1:87D0H         LINE#         692
 C1:87D1H         LINE#         694
 C1:87D1H         LINE#         695
 C1:87D7H         LINE#         696
 C1:87DDH         LINE#         697
 C1:87E5H         LINE#         698
 C1:87E7H         LINE#         699
 C1:87E7H         LINE#         700
 C1:87EAH         LINE#         701
 C1:87F3H         LINE#         702
 C1:87F3H         LINE#         703
 C1:87F9H         LINE#         704
 C1:87FAH         LINE#         706
 C1:87FAH         LINE#         707
 C1:8804H         LINE#         709
 C1:8809H         LINE#         710
 C1:880CH         LINE#         711
 C1:880FH         LINE#         712
 C1:8812H         LINE#         713
 C1:8819H         LINE#         714
 C1:8819H         LINE#         715
 C1:881FH         LINE#         716
 C1:8825H         LINE#         717
 C1:8825H         LINE#         718
 C1:8825H         LINE#         719
 C1:8825H         LINE#         720
  -------         ENDPROC       AUTOMAT_RMODEM
BL51 BANKED LINKER/LOCATER V6.22            10/13/2015  11:10:35  PAGE 160


  -------         ENDMOD        RMODEM

  -------         MODULE        UART
  C:0000H         SYMBOL        _ICE_DUMMY_
  D:009DH         PUBLIC        SPI0CKR
  D:0080H         PUBLIC        P0
  B:00F8H.0       PUBLIC        SPIEN
  D:0090H         PUBLIC        P1
  D:00FFH         PUBLIC        WDTCN
  D:00A0H         PUBLIC        P2
 C1:9A7AH         PUBLIC        Read_byte_uart0_GPRS
  D:00B0H         PUBLIC        P3
  D:00C8H         PUBLIC        P4
  D:00E6H         PUBLIC        EIE1
  D:00D8H         PUBLIC        P5
  D:00E8H         PUBLIC        P6
  D:00E7H         PUBLIC        EIE2
  D:00F8H         PUBLIC        P7
  D:0084H         PUBLIC        SFRPAGE
 C1:9CBAH         PUBLIC        max_receive
 C1:99FFH         PUBLIC        receive_char_max
  B:00F8H.1       PUBLIC        TXBMT
  B:00A0H.4       PUBLIC        P2_4
 C1:993EH         PUBLIC        _sendStringUART0
 C1:99BFH         PUBLIC        _sendStringUART1
  B:00B0H.6       PUBLIC        P3_6
 C1:9CB4H         PUBLIC        max_transmit
  X:09E7H         PUBLIC        cBufTxR
  X:09E9H         PUBLIC        cBufTxW
  D:00F8H         PUBLIC        SPI0CN
 C1:9BCCH         PUBLIC        ClearBuf_max
  X:09EBH         PUBLIC        buf_rx_max
  B:00F8H.7       PUBLIC        SPIF
  B:0027H.4       PUBLIC        _flag_tangenta
 C1:9C8DH         PUBLIC        FreeSPI_MAX
  X:09F5H         PUBLIC        OutMAXPointer1
  X:09F6H         PUBLIC        tx_data_uart0
  X:09F7H         PUBLIC        OutMAXPointer2
  X:09F8H         PUBLIC        tx_data_uart1
 C1:9B8CH         PUBLIC        HoldSPI_MAX
 C1:9B22H         PUBLIC        _Init_max
  X:09F9H         PUBLIC        ukBuf_rx_r_max
  X:09FAH         PUBLIC        char_max
  B:00A8H.4       PUBLIC        ES0
  X:09FBH         PUBLIC        ukBuf_rx_w_max
  B:00A8H.2       PUBLIC        EX1
  X:09FCH         PUBLIC        sizeBuf_rx_max
  X:09FDH         PUBLIC        cBufTxR1
 C1:95E7H         PUBLIC        send_max
 C1:9B6AH         PUBLIC        ClearBuf_uart0
  X:09FFH         PUBLIC        cBufTxW1
 C1:9B47H         PUBLIC        ClearBuf_uart1
  X:0A01H         PUBLIC        buf_rx_uart0
  X:0CBDH         PUBLIC        buf_rx_uart1
  X:0D3DH         PUBLIC        buf_tx_uart0
  X:0DA1H         PUBLIC        buf_tx_uart1
  D:0099H         PUBLIC        SBUF0
  D:0099H         PUBLIC        SBUF1
 C1:9AB4H         PUBLIC        Read_byte_uart0
 C1:9AEDH         PUBLIC        Read_byte_uart1
 C1:9CC0H         PUBLIC        Init_uart0
 C1:9CC3H         PUBLIC        Init_uart1
  X:0F95H         PUBLIC        ukBuf_rx_r_uart0
  X:0F97H         PUBLIC        ukBuf_rx_r_uart1
  D:009AH         PUBLIC        SPI0CFG
BL51 BANKED LINKER/LOCATER V6.22            10/13/2015  11:10:35  PAGE 161


  X:0F98H         PUBLIC        ukBuf_rx_w_uart0
  X:0F9AH         PUBLIC        ukBuf_rx_w_uart1
  X:0F9BH         PUBLIC        sizeBuf_rx_uart0
  D:009BH         PUBLIC        SPI0DAT
  X:0F9DH         PUBLIC        sizeBuf_rx_uart1
 C1:98FCH         PUBLIC        send_char_uart0
 C1:997FH         PUBLIC        send_char_uart1
 C1:9A3FH         SYMBOL        Com0048
 C1:9A3FH         SYMBOL        L?0073
 C1:9A51H         SYMBOL        L?0074
 C1:9A61H         SYMBOL        L?0075
 C1:9A70H         SYMBOL        L?0076
  -------         PROC          COM0048
  -------         ENDPROC       COM0048

  -------         PROC BANK=1   INIT_UART0
 C1:9CC0H         LINE#         50
  -------         ENDPROC       INIT_UART0

  -------         PROC BANK=1   INIT_UART1
 C1:9CC3H         LINE#         51
  -------         ENDPROC       INIT_UART1

  -------         PROC BANK=1   SEND_CHAR_UART0
 C1:98FCH         LINE#         54
 C1:98FCH         LINE#         55
 C1:98FCH         LINE#         56
 C1:98FEH         LINE#         57
 C1:9912H         LINE#         59
 C1:9914H         LINE#         61
 C1:9917H         LINE#         62
 C1:9917H         LINE#         63
 C1:9919H         LINE#         64
 C1:991CH         LINE#         65
 C1:9922H         LINE#         66
 C1:9924H         LINE#         68
 C1:993BH         LINE#         70
 C1:993DH         LINE#         71
  -------         ENDPROC       SEND_CHAR_UART0

  -------         PROC BANK=1   _SENDSTRINGUART0
  D:0029H         SYMBOL        str
  -------         DO            
  D:002CH         SYMBOL        StrLength
  D:002EH         SYMBOL        index
  -------         ENDDO         
 C1:993EH         LINE#         73
 C1:9944H         LINE#         74
 C1:9944H         LINE#         75
 C1:994BH         LINE#         76
 C1:9950H         LINE#         78
 C1:995BH         LINE#         79
 C1:995BH         LINE#         80
 C1:996EH         LINE#         81
 C1:9971H         LINE#         82
 C1:9979H         LINE#         83
 C1:997CH         LINE#         84
 C1:997EH         LINE#         85
  -------         ENDPROC       _SENDSTRINGUART0

  -------         PROC BANK=1   SEND_CHAR_UART1
 C1:997FH         LINE#         87
 C1:997FH         LINE#         88
 C1:997FH         LINE#         89
 C1:9982H         LINE#         90
BL51 BANKED LINKER/LOCATER V6.22            10/13/2015  11:10:35  PAGE 162


 C1:9991H         LINE#         92
 C1:9994H         LINE#         94
 C1:9997H         LINE#         95
 C1:9997H         LINE#         96
 C1:9999H         LINE#         97
 C1:999CH         LINE#         98
 C1:99A2H         LINE#         99
 C1:99A4H         LINE#         101
 C1:99BBH         LINE#         103
 C1:99BEH         LINE#         104
  -------         ENDPROC       SEND_CHAR_UART1

  -------         PROC BANK=1   _SENDSTRINGUART1
  D:0031H         SYMBOL        str
  -------         DO            
  D:0006H         SYMBOL        StrLength
  D:0034H         SYMBOL        index
  -------         ENDDO         
 C1:99BFH         LINE#         106
 C1:99C5H         LINE#         107
 C1:99C5H         LINE#         108
 C1:99CAH         LINE#         109
 C1:99CFH         LINE#         111
 C1:99DBH         LINE#         112
 C1:99DBH         LINE#         113
 C1:99EEH         LINE#         114
 C1:99F1H         LINE#         115
 C1:99F9H         LINE#         116
 C1:99FCH         LINE#         117
 C1:99FEH         LINE#         118
  -------         ENDPROC       _SENDSTRINGUART1

  -------         PROC BANK=1   READ_BYTE_UART0
  -------         DO            
  D:0007H         SYMBOL        B
  -------         ENDDO         
 C1:9AB4H         LINE#         121
 C1:9AB4H         LINE#         122
 C1:9AB4H         LINE#         123
 C1:9AB6H         LINE#         124
 C1:9AB8H         LINE#         125
 C1:9AC2H         LINE#         126
 C1:9AC2H         LINE#         127
 C1:9AC6H         LINE#         128
 C1:9AD4H         LINE#         129
 C1:9AD7H         LINE#         130
 C1:9AEAH         LINE#         131
 C1:9AEAH         LINE#         132
 C1:9AECH         LINE#         133
 C1:9AECH         LINE#         134
  -------         ENDPROC       READ_BYTE_UART0

  -------         PROC BANK=1   READ_BYTE_UART0_GPRS
 C1:9A7AH         LINE#         136
 C1:9A7AH         LINE#         137
 C1:9A7AH         LINE#         138
 C1:9A7CH         LINE#         139
 C1:9A86H         LINE#         140
 C1:9A86H         LINE#         141
 C1:9A8DH         LINE#         142
 C1:9A90H         LINE#         143
 C1:9A92H         LINE#         144
 C1:9AAEH         LINE#         145
 C1:9AB0H         LINE#         146
 C1:9AB0H         LINE#         147
BL51 BANKED LINKER/LOCATER V6.22            10/13/2015  11:10:35  PAGE 163


 C1:9AB2H         LINE#         148
 C1:9AB3H         LINE#         149
  -------         ENDPROC       READ_BYTE_UART0_GPRS

  -------         PROC BANK=1   READ_BYTE_UART1
  -------         DO            
  D:0007H         SYMBOL        B
  -------         ENDDO         
 C1:9AEDH         LINE#         151
 C1:9AEDH         LINE#         152
 C1:9AEDH         LINE#         153
 C1:9AEFH         LINE#         154
 C1:9AF2H         LINE#         155
 C1:9AF8H         LINE#         156
 C1:9AF8H         LINE#         157
 C1:9B07H         LINE#         158
 C1:9B0DH         LINE#         159
 C1:9B13H         LINE#         160
 C1:9B1EH         LINE#         161
 C1:9B1EH         LINE#         162
 C1:9B21H         LINE#         163
 C1:9B21H         LINE#         164
  -------         ENDPROC       READ_BYTE_UART1

  -------         PROC BANK=1   CLEARBUF_UART0
 C1:9B6AH         LINE#         167
 C1:9B6AH         LINE#         168
 C1:9B6AH         LINE#         169
 C1:9B74H         LINE#         170
 C1:9B76H         LINE#         171
 C1:9B7DH         LINE#         172
 C1:9B83H         LINE#         173
 C1:9B89H         LINE#         174
 C1:9B8BH         LINE#         175
  -------         ENDPROC       CLEARBUF_UART0

  -------         PROC BANK=1   CLEARBUF_UART1
 C1:9B47H         LINE#         177
 C1:9B47H         LINE#         178
 C1:9B47H         LINE#         180
 C1:9B4AH         LINE#         181
 C1:9B59H         LINE#         182
 C1:9B5EH         LINE#         183
 C1:9B62H         LINE#         184
 C1:9B66H         LINE#         185
 C1:9B69H         LINE#         186
  -------         ENDPROC       CLEARBUF_UART1

  -------         PROC BANK=1   HOLDSPI_MAX
 C1:9B8CH         LINE#         191
 C1:9B8CH         LINE#         192
 C1:9B8CH         LINE#         193
 C1:9B94H         LINE#         194
 C1:9B97H         LINE#         195
 C1:9B99H         LINE#         196
 C1:9B9BH         LINE#         197
 C1:9B9EH         LINE#         198
 C1:9BA0H         LINE#         199
 C1:9BA3H         LINE#         200
 C1:9BA6H         LINE#         201
 C1:9BA9H         LINE#         202
 C1:9BACH         LINE#         203
  -------         ENDPROC       HOLDSPI_MAX

  -------         PROC BANK=1   FREESPI_MAX
BL51 BANKED LINKER/LOCATER V6.22            10/13/2015  11:10:35  PAGE 164


 C1:9C8DH         LINE#         205
 C1:9C8DH         LINE#         206
 C1:9C8DH         LINE#         207
 C1:9C8FH         LINE#         208
 C1:9C92H         LINE#         209
 C1:9C95H         LINE#         210
 C1:9C98H         LINE#         211
 C1:9C9AH         LINE#         212
 C1:9C9DH         LINE#         213
  -------         ENDPROC       FREESPI_MAX

  -------         PROC BANK=1   _INIT_MAX
  D:0007H         SYMBOL        clk_md
 C1:9B22H         LINE#         215
 C1:9B22H         LINE#         216
 C1:9B22H         LINE#         217
 C1:9B25H         LINE#         225
 C1:9B28H         LINE#         226
 C1:9B30H         LINE#         227
 C1:9B32H         LINE#         228
 C1:9B3AH         LINE#         229
 C1:9B44H         LINE#         230
  -------         ENDPROC       _INIT_MAX

  -------         PROC BANK=1   SEND_MAX
  -------         DO            
  D:0007H         SYMBOL        RX_SPI_1
 C1:95F0H         SYMBOL        start1
  -------         ENDDO         
 C1:95E7H         LINE#         233
 C1:95E7H         LINE#         234
 C1:95E7H         LINE#         236
 C1:95EDH         LINE#         237
 C1:95F0H         LINE#         238
 C1:95F0H         LINE#         239
 C1:95F3H         LINE#         240
 C1:95FDH         LINE#         241
 C1:95FFH         LINE#         242
 C1:9602H         LINE#         243
 C1:960CH         LINE#         244
 C1:960EH         LINE#         245
 C1:9611H         LINE#         246
 C1:9613H         LINE#         247
 C1:9622H         LINE#         248
 C1:9622H         LINE#         249
 C1:962CH         LINE#         250
 C1:9640H         LINE#         251
 C1:964AH         LINE#         252
 C1:964DH         LINE#         253
 C1:9663H         LINE#         254
  -------         ENDPROC       SEND_MAX

  -------         PROC BANK=1   RECEIVE_CHAR_MAX
  -------         DO            
  B:0026H.5       SYMBOL        B
  -------         ENDDO         
 C1:99FFH         LINE#         257
 C1:99FFH         LINE#         258
 C1:99FFH         LINE#         259
 C1:9A01H         LINE#         260
 C1:9A04H         LINE#         261
 C1:9A06H         LINE#         262
 C1:9A0CH         LINE#         263
 C1:9A0CH         LINE#         264
 C1:9A1EH         LINE#         265
BL51 BANKED LINKER/LOCATER V6.22            10/13/2015  11:10:35  PAGE 165


 C1:9A24H         LINE#         266
 C1:9A2AH         LINE#         267
 C1:9A35H         LINE#         268
 C1:9A37H         LINE#         269
 C1:9A37H         LINE#         270
 C1:9A39H         LINE#         271
 C1:9A3CH         LINE#         272
 C1:9A3EH         LINE#         273
  -------         ENDPROC       RECEIVE_CHAR_MAX

  -------         PROC BANK=1   CLEARBUF_MAX
 C1:9BCCH         LINE#         276
 C1:9BCCH         LINE#         277
 C1:9BCCH         LINE#         278
 C1:9BD2H         LINE#         279
 C1:9BD5H         LINE#         280
 C1:9BD7H         LINE#         281
 C1:9BDCH         LINE#         282
 C1:9BE0H         LINE#         283
 C1:9BE4H         LINE#         284
 C1:9BE6H         LINE#         285
 C1:9BE9H         LINE#         286
  -------         ENDPROC       CLEARBUF_MAX

  -------         PROC BANK=1   MAX_TRANSMIT
 C1:9CB4H         LINE#         289
 C1:9CB4H         LINE#         290
 C1:9CB4H         LINE#         291
 C1:9CB6H         LINE#         292
 C1:9CB6H         LINE#         293
 C1:9CB9H         LINE#         294
  -------         ENDPROC       MAX_TRANSMIT

  -------         PROC BANK=1   MAX_RECEIVE
 C1:9CBAH         LINE#         297
 C1:9CBAH         LINE#         298
 C1:9CBAH         LINE#         299
 C1:9CBCH         LINE#         300
 C1:9CBCH         LINE#         301
 C1:9CBFH         LINE#         302
  -------         ENDPROC       MAX_RECEIVE
  -------         ENDMOD        UART

  -------         MODULE        DS18B20
  C:0000H         SYMBOL        _ICE_DUMMY_
  B:0024H.4       PUBLIC        VLAN_INT
  D:0080H         PUBLIC        P0
  D:0090H         PUBLIC        P1
  D:00A0H         PUBLIC        P2
  X:1D25H         PUBLIC        cnt_LAN
  D:00B0H         PUBLIC        P3
  D:00C8H         PUBLIC        P4
  X:1D26H         PUBLIC        MStateVLAN
  D:00D8H         PUBLIC        P5
  D:00E8H         PUBLIC        P6
  B:0024H.5       PUBLIC        bit_data0_temp
  D:00CCH         PUBLIC        TMR_VLAN
  D:00F8H         PUBLIC        P7
  D:0084H         PUBLIC        SFRPAGE
  X:1D27H         PUBLIC        Lan_temper
  D:009CH         PUBLIC        P4MDOUT
  B:0024H.6       PUBLIC        bit_data_device
 C1:9341H         PUBLIC        automat_vlan
  B:00C8H.4       PUBLIC        P4_4
 C1:882FH         PUBLIC        automat_lan
BL51 BANKED LINKER/LOCATER V6.22            10/13/2015  11:10:35  PAGE 166


  B:0020H.0       PUBLIC        bit_data0_crc_8
  B:0020H.1       PUBLIC        bit_data1_crc_8
  B:0020H.2       PUBLIC        bit_data2_crc_8
  B:0020H.3       PUBLIC        bit_data3_crc_8
  B:0020H.4       PUBLIC        bit_data4_crc_8
  X:1D28H         PUBLIC        StLAN
  B:0020H.5       PUBLIC        bit_data5_crc_8
  B:0020H.6       PUBLIC        bit_data6_crc_8
  B:0020H.7       PUBLIC        bit_data7_crc_8
  B:0024H.7       PUBLIC        _lan_exist
  B:0025H.0       PUBLIC        VLAN
  D:005DH         PUBLIC        StateVLAN
  X:1D29H         PUBLIC        context_LAN
  B:0025H.1       PUBLIC        _err_lan
  D:0020H         PUBLIC        data_crc_8
  B:0025H.2       PUBLIC        bit_datax_temp
  B:0025H.3       PUBLIC        bit_lsb_byte_device
 C1:9C6AH         PUBLIC        init_lan
  X:1D31H         PUBLIC        Lan_err_count
  B:00C8H.2       PUBLIC        TR3
  B:0025H.4       PUBLIC        bit_data_lan
  X:1D32H         PUBLIC        StateLAN
  X:1D33H         PUBLIC        temperature_data_lsb_18b20
  X:1D34H         PUBLIC        temperature_data_msb_18b20
 C1:98BDH         PUBLIC        _crc_8_lan
  X:1D35H         PUBLIC        byte_out
  X:1D36H         PUBLIC        data_in_lan
  B:0025H.5       PUBLIC        bit_priority_device
 C1:9871H         SYMBOL        Com0066
 C1:9871H         SYMBOL        L?0103
 C1:9874H         SYMBOL        L?0104
 C1:9875H         SYMBOL        L?0105
 C1:987EH         SYMBOL        L?0106
 C1:987FH         SYMBOL        L?0107
 C1:9890H         SYMBOL        L?0110
 C1:98A2H         SYMBOL        L?0111
 C1:98AEH         SYMBOL        L?0112
  -------         PROC          COM0066
  -------         ENDPROC       COM0066

  -------         PROC BANK=1   INIT_LAN
 C1:9C6AH         LINE#         66
 C1:9C6AH         LINE#         67
 C1:9C6AH         LINE#         68
 C1:9C6CH         LINE#         70
 C1:9C72H         LINE#         71
 C1:9C73H         LINE#         72
 C1:9C73H         LINE#         74
 C1:9C73H         LINE#         75
 C1:9C76H         LINE#         77
 C1:9C7BH         LINE#         78
  -------         ENDPROC       INIT_LAN
 C1:98B8H         SYMBOL        L?0109
  -------         PROC          L?0108
  -------         ENDPROC       L?0108
 C1:98B8H         SYMBOL        L?0109

  -------         PROC BANK=1   _CRC_8_LAN
  D:0007H         SYMBOL        in_crc
  -------         DO            
  D:0006H         SYMBOL        cnt
  -------         ENDDO         
 C1:98BDH         LINE#         81
 C1:98BDH         LINE#         84
 C1:98BDH         LINE#         87
BL51 BANKED LINKER/LOCATER V6.22            10/13/2015  11:10:35  PAGE 167


 C1:98BFH         LINE#         88
 C1:98BFH         LINE#         89
 C1:98C3H         LINE#         91
 C1:98CBH         LINE#         92
 C1:98CFH         LINE#         93
 C1:98D3H         LINE#         94
 C1:98DBH         LINE#         95
 C1:98E3H         LINE#         96
 C1:98E7H         LINE#         97
 C1:98EBH         LINE#         98
 C1:98EFH         LINE#         99
 C1:98F3H         LINE#         101
 C1:98F7H         LINE#         102
 C1:98FBH         LINE#         103
  -------         ENDPROC       _CRC_8_LAN

  -------         PROC BANK=1   AUTOMAT_VLAN
 C1:9341H         LINE#         106
 C1:9341H         LINE#         107
 C1:9341H         LINE#         108
 C1:9347H         LINE#         110
 C1:9374H         LINE#         111
 C1:9374H         LINE#         113
 C1:9374H         LINE#         114
 C1:9376H         LINE#         115
 C1:9378H         LINE#         116
 C1:937AH         LINE#         117
 C1:937AH         LINE#         118
 C1:937DH         LINE#         119
 C1:9380H         LINE#         120
 C1:938CH         LINE#         123
 C1:938CH         LINE#         124
 C1:938EH         LINE#         128
 C1:938EH         LINE#         129
 C1:9390H         LINE#         130
 C1:9390H         LINE#         131
 C1:9393H         LINE#         132
 C1:9396H         LINE#         133
 C1:93A2H         LINE#         136
 C1:93A9H         LINE#         141
 C1:93A9H         LINE#         142
 C1:93A9H         LINE#         143
 C1:93A9H         LINE#         144
 C1:93A9H         LINE#         145
 C1:93A9H         LINE#         146
 C1:93A9H         LINE#         147
 C1:93A9H         LINE#         148
 C1:93B8H         LINE#         149
 C1:93BFH         LINE#         150
 C1:93C6H         LINE#         151
 C1:93C6H         LINE#         152
 C1:93D3H         LINE#         153
 C1:93DAH         LINE#         154
 C1:93DEH         LINE#         156
 C1:93DEH         LINE#         157
 C1:93EDH         LINE#         158
 C1:93F0H         LINE#         162
 C1:93F0H         LINE#         163
 C1:93F6H         LINE#         164
 C1:93FAH         LINE#         166
 C1:93FAH         LINE#         167
 C1:93FCH         LINE#         169
 C1:93FCH         LINE#         170
  -------         ENDPROC       AUTOMAT_VLAN

BL51 BANKED LINKER/LOCATER V6.22            10/13/2015  11:10:35  PAGE 168


  -------         PROC BANK=1   AUTOMAT_LAN
 C1:882FH         LINE#         173
 C1:882FH         LINE#         174
 C1:882FH         LINE#         175
 C1:88A0H         LINE#         176
 C1:88A0H         LINE#         178
 C1:88A0H         LINE#         179
 C1:88A5H         LINE#         180
 C1:88A5H         LINE#         181
 C1:88A5H         LINE#         182
 C1:88A8H         LINE#         183
 C1:88A8H         LINE#         184
 C1:88ADH         LINE#         185
 C1:88ADH         LINE#         186
 C1:88ADH         LINE#         187
 C1:88ADH         LINE#         188
 C1:88B0H         LINE#         189
 C1:88B0H         LINE#         190
 C1:88B2H         LINE#         191
 C1:88B2H         LINE#         192
 C1:88B2H         LINE#         193
 C1:88B8H         LINE#         194
 C1:88B9H         LINE#         195
 C1:88B9H         LINE#         196
 C1:88B9H         LINE#         197
 C1:88B9H         LINE#         198
 C1:88B9H         LINE#         199
 C1:88B9H         LINE#         200
 C1:88B9H         LINE#         201
 C1:88BCH         LINE#         202
 C1:88BCH         LINE#         203
 C1:88BEH         LINE#         204
 C1:88BEH         LINE#         205
 C1:88BEH         LINE#         206
 C1:88C4H         LINE#         207
 C1:88C9H         LINE#         208
 C1:88CAH         LINE#         210
 C1:88CAH         LINE#         211
 C1:88DCH         LINE#         212
 C1:88DDH         LINE#         215
 C1:88DDH         LINE#         216
 C1:88E2H         LINE#         217
 C1:88E2H         LINE#         218
 C1:88E2H         LINE#         219
 C1:88E5H         LINE#         220
 C1:88E5H         LINE#         221
 C1:88EAH         LINE#         222
 C1:88EAH         LINE#         223
 C1:88EAH         LINE#         224
 C1:88EAH         LINE#         225
 C1:88ECH         LINE#         226
 C1:88ECH         LINE#         227
 C1:88F1H         LINE#         228
 C1:88F1H         LINE#         229
 C1:88F1H         LINE#         230
 C1:88F7H         LINE#         231
 C1:88F8H         LINE#         234
 C1:88F8H         LINE#         235
 C1:88FDH         LINE#         236
 C1:88FDH         LINE#         237
 C1:88FDH         LINE#         238
 C1:88FDH         LINE#         239
 C1:8900H         LINE#         240
 C1:8900H         LINE#         241
 C1:890EH         LINE#         242
BL51 BANKED LINKER/LOCATER V6.22            10/13/2015  11:10:35  PAGE 169


 C1:8911H         LINE#         243
 C1:8912H         LINE#         248
 C1:8912H         LINE#         249
 C1:8914H         LINE#         250
 C1:8919H         LINE#         251
 C1:8919H         LINE#         252
 C1:8919H         LINE#         253
 C1:891CH         LINE#         254
 C1:891CH         LINE#         255
 C1:8921H         LINE#         256
 C1:8921H         LINE#         257
 C1:8921H         LINE#         258
 C1:8927H         LINE#         259
 C1:8928H         LINE#         260
 C1:8928H         LINE#         261
 C1:892DH         LINE#         262
 C1:892DH         LINE#         263
 C1:892DH         LINE#         264
 C1:8933H         LINE#         265
 C1:8934H         LINE#         266
 C1:8934H         LINE#         267
 C1:8937H         LINE#         268
 C1:893CH         LINE#         269
 C1:893CH         LINE#         270
 C1:893CH         LINE#         271
 C1:893CH         LINE#         272
 C1:893FH         LINE#         273
 C1:893FH         LINE#         274
 C1:8942H         LINE#         275
 C1:8947H         LINE#         276
 C1:894CH         LINE#         277
 C1:894CH         LINE#         278
 C1:894CH         LINE#         279
 C1:894CH         LINE#         280
 C1:894FH         LINE#         281
 C1:894FH         LINE#         282
 C1:8952H         LINE#         283
 C1:8957H         LINE#         284
 C1:895CH         LINE#         285
 C1:895CH         LINE#         286
 C1:895CH         LINE#         287
 C1:895CH         LINE#         288
 C1:895FH         LINE#         289
 C1:895FH         LINE#         290
 C1:895FH         LINE#         291
 C1:895FH         LINE#         292
 C1:895FH         LINE#         293
 C1:895FH         LINE#         294
 C1:895FH         LINE#         295
 C1:8962H         LINE#         296
 C1:8967H         LINE#         297
 C1:8967H         LINE#         298
 C1:8967H         LINE#         299
 C1:8967H         LINE#         300
 C1:896AH         LINE#         301
 C1:896AH         LINE#         302
 C1:8974H         LINE#         303
 C1:897AH         LINE#         304
 C1:897BH         LINE#         306
 C1:897BH         LINE#         307
 C1:897EH         LINE#         308
 C1:897EH         LINE#         309
 C1:8984H         LINE#         310
 C1:898AH         LINE#         311
 C1:898AH         LINE#         312
BL51 BANKED LINKER/LOCATER V6.22            10/13/2015  11:10:35  PAGE 170


 C1:898BH         LINE#         313
 C1:898BH         LINE#         314
 C1:898BH         LINE#         315
 C1:898EH         LINE#         316
 C1:898EH         LINE#         317
 C1:899AH         LINE#         318
 C1:899CH         LINE#         319
 C1:899CH         LINE#         321
 C1:89AAH         LINE#         322
 C1:89AAH         LINE#         323
 C1:89AAH         LINE#         324
 C1:89AAH         LINE#         325
 C1:89ADH         LINE#         326
 C1:89AFH         LINE#         328
 C1:89AFH         LINE#         329
 C1:89C5H         LINE#         330
 C1:89CAH         LINE#         331
 C1:89CDH         LINE#         332
 C1:89CDH         LINE#         333
 C1:89DEH         LINE#         334
 C1:89DFH         LINE#         337
 C1:89DFH         LINE#         338
 C1:89E4H         LINE#         339
 C1:89E4H         LINE#         340
 C1:89E4H         LINE#         341
 C1:89E6H         LINE#         344
 C1:89E6H         LINE#         351
 C1:89E6H         LINE#         352
 C1:89EDH         LINE#         353
 C1:89F1H         LINE#         354
 C1:89F5H         LINE#         355
 C1:89F5H         LINE#         356
 C1:89F8H         LINE#         357
 C1:89F8H         LINE#         358
 C1:89FEH         LINE#         359
 C1:8A01H         LINE#         360
 C1:8A03H         LINE#         361
 C1:8A04H         LINE#         362
 C1:8A04H         LINE#         363
 C1:8A09H         LINE#         364
 C1:8A09H         LINE#         365
 C1:8A09H         LINE#         366
 C1:8A0FH         LINE#         367
 C1:8A10H         LINE#         368
 C1:8A10H         LINE#         369
 C1:8A13H         LINE#         370
 C1:8A17H         LINE#         371
 C1:8A1DH         LINE#         372
 C1:8A1DH         LINE#         373
 C1:8A1DH         LINE#         374
 C1:8A1DH         LINE#         375
 C1:8A1FH         LINE#         376
 C1:8A1FH         LINE#         377
 C1:8A22H         LINE#         378
 C1:8A25H         LINE#         379
 C1:8A36H         LINE#         380
 C1:8A36H         LINE#         381
 C1:8A36H         LINE#         382
 C1:8A3CH         LINE#         383
 C1:8A3DH         LINE#         384
 C1:8A3DH         LINE#         385
 C1:8A43H         LINE#         386
 C1:8A48H         LINE#         387
 C1:8A48H         LINE#         388
 C1:8A5DH         LINE#         389
BL51 BANKED LINKER/LOCATER V6.22            10/13/2015  11:10:35  PAGE 171


 C1:8A5DH         LINE#         390
 C1:8A61H         LINE#         391
 C1:8A65H         LINE#         392
 C1:8A6BH         LINE#         393
 C1:8A6CH         LINE#         394
 C1:8A6CH         LINE#         395
 C1:8A72H         LINE#         396
 C1:8A73H         LINE#         397
 C1:8A73H         LINE#         398
 C1:8A7AH         LINE#         399
 C1:8A80H         LINE#         400
 C1:8A81H         LINE#         402
 C1:8A81H         LINE#         403
 C1:8A87H         LINE#         404
 C1:8A87H         LINE#         405
 C1:8A87H         LINE#         406
  -------         ENDPROC       AUTOMAT_LAN
  -------         ENDMOD        DS18B20

  -------         MODULE        SETTING
  C:0000H         SYMBOL        _ICE_DUMMY_
  D:0080H         PUBLIC        P0
  D:0090H         PUBLIC        P1
  D:00A0H         PUBLIC        P2
  D:00B0H         PUBLIC        P3
  D:00C8H         PUBLIC        P4
  D:00D8H         PUBLIC        P5
  D:00E8H         PUBLIC        P6
  D:00F8H         PUBLIC        P7
  C:20CEH         PUBLIC        remoteIP
  C:20AEH         PUBLIC        PPP_LOGIN
  C:20DAH         PUBLIC        remotePORT
  C:20BEH         PUBLIC        PPP_PASSW
  -------         ENDMOD        SETTING

  -------         MODULE        GPRS
  C:0000H         SYMBOL        _ICE_DUMMY_
  D:0080H         PUBLIC        P0
  D:0090H         PUBLIC        P1
  D:00FFH         PUBLIC        WDTCN
  D:00A0H         PUBLIC        P2
  D:00B0H         PUBLIC        P3
  D:00C8H         PUBLIC        P4
  D:00D8H         PUBLIC        P5
  D:00E8H         PUBLIC        P6
  D:00F8H         PUBLIC        P7
  D:0084H         PUBLIC        SFRPAGE
  X:194EH         PUBLIC        SizeOutGPRS
  B:00B0H.7       PUBLIC        P3_7
  X:1950H         PUBLIC        bufHdrGPRS
  X:196EH         PUBLIC        buf_out_max
  X:1A6CH         PUBLIC        cntInLengthGPRS
  X:1A6EH         PUBLIC        cntHdrGPRS
 C3:8000H         PUBLIC        automat_gprs_glob
  D:0088H         PUBLIC        CPT0CN
  D:0088H         PUBLIC        CPT1CN
  X:1A6FH         PUBLIC        TimeHttp
  X:1A76H         PUBLIC        bufInGPRS
  X:1B03H         PUBLIC        timer_http_delay
  X:1B04H         PUBLIC        cntInGPRS
  X:1B05H         PUBLIC        gprs
  X:1B07H         PUBLIC        cntOutGPRS
 C3:8D5CH         PUBLIC        debug_gprs_init
  X:1B09H         PUBLIC        StateGlobGPRS
  X:1B0AH         PUBLIC        timer_gprs_glob
BL51 BANKED LINKER/LOCATER V6.22            10/13/2015  11:10:35  PAGE 172


  B:00A8H.5       PUBLIC        ET2
  D:005EH         PUBLIC        tick_gprs
 C3:8D34H         PUBLIC        _send_c_out_max
  X:1B0CH         PUBLIC        timer_gprs_1
  X:1B0DH         PUBLIC        in_data
 C3:82C7H         PUBLIC        automat_gprs_in
 C3:8CCEH         PUBLIC        automat_gprs_out
  X:1B0EH         PUBLIC        InLengthGPRS
  X:1B10H         PUBLIC        timer_http_wait
  X:1B11H         PUBLIC        StateInGPRS
  X:1B12H         PUBLIC        timer_gprs_in
  X:1B13H         PUBLIC        StateOutGPRS
 C3:8BF5H         SYMBOL        Com006E
 C3:8BF5H         SYMBOL        L?0111
 C3:8BF5H         SYMBOL        L?0112
 C3:8C0AH         SYMBOL        L?0113
 C3:8C22H         SYMBOL        L?0116
 C3:8C32H         SYMBOL        L?0117
 C3:8C35H         SYMBOL        L?0118
 C3:8C3DH         SYMBOL        L?0119
 C3:8C40H         SYMBOL        L?0120
 C3:8C48H         SYMBOL        L?0121
  -------         PROC          COM006E
  -------         ENDPROC       COM006E

  -------         PROC BANK=3   _SEND_C_OUT_MAX
  D:0029H         SYMBOL        C_out
 C3:8D34H         LINE#         27
 C3:8D36H         LINE#         28
 C3:8D36H         LINE#         29
 C3:8D47H         LINE#         30
 C3:8D5BH         LINE#         31
  -------         ENDPROC       _SEND_C_OUT_MAX

  -------         PROC BANK=3   DEBUG_GPRS_INIT
 C3:8D5CH         LINE#         33
 C3:8D5CH         LINE#         34
 C3:8D5CH         LINE#         35
 C3:8D62H         LINE#         36
  -------         ENDPROC       DEBUG_GPRS_INIT
 C3:8287H         SYMBOL        L?0109
 C3:82B9H         SYMBOL        L?0114

  -------         PROC BANK=3   AUTOMAT_GPRS_GLOB
  -------         DO            
  D:0028H         SYMBOL        c_tick
  -------         ENDDO         
 C3:8000H         LINE#         79
 C3:8000H         LINE#         80
 C3:8000H         LINE#         84
 C3:8002H         LINE#         85
 C3:8005H         LINE#         86
 C3:8008H         LINE#         87
 C3:800AH         LINE#         88
 C3:800EH         LINE#         89
 C3:800EH         LINE#         91
 C3:8011H         LINE#         92
 C3:8011H         LINE#         93
 C3:8014H         LINE#         94
 C3:802CH         LINE#         95
 C3:8032H         LINE#         96
 C3:803DH         LINE#         98
 C3:804EH         LINE#         100
 C3:804EH         LINE#         102
 C3:8053H         LINE#         103
BL51 BANKED LINKER/LOCATER V6.22            10/13/2015  11:10:35  PAGE 173


 C3:8053H         LINE#         104
 C3:8056H         LINE#         105
 C3:805EH         LINE#         106
 C3:805EH         LINE#         108
 C3:8065H         LINE#         109
 C3:8065H         LINE#         110
 C3:806DH         LINE#         111
 C3:8075H         LINE#         112
 C3:8077H         LINE#         113
 C3:8077H         LINE#         115
 C3:807AH         LINE#         136
 C3:8090H         LINE#         137
 C3:8090H         LINE#         138
 C3:8090H         LINE#         139
 C3:809AH         LINE#         140
 C3:809AH         LINE#         142
 C3:809CH         LINE#         143
 C3:809CH         LINE#         145
 C3:809CH         LINE#         146
 C3:809CH         LINE#         147
 C3:809CH         LINE#         148
 C3:809CH         LINE#         149
 C3:809CH         LINE#         150
 C3:809CH         LINE#         152
 C3:809CH         LINE#         153
 C3:809CH         LINE#         154
 C3:80A2H         LINE#         155
 C3:80A3H         LINE#         156
 C3:80A6H         LINE#         157
 C3:80AAH         LINE#         158
 C3:80AFH         LINE#         159
 C3:80BBH         LINE#         161
 C3:80C8H         LINE#         162
 C3:80C8H         LINE#         163
 C3:80C8H         LINE#         164
 C3:80CBH         LINE#         166
 C3:80CBH         LINE#         167
 C3:80CEH         LINE#         168
 C3:80CEH         LINE#         169
 C3:80D5H         LINE#         171
 C3:80D7H         LINE#         172
 C3:80D7H         LINE#         173
 C3:80DAH         LINE#         175
 C3:80E1H         LINE#         176
 C3:80E9H         LINE#         177
 C3:80F0H         LINE#         178
 C3:80F4H         LINE#         179
 C3:80F4H         LINE#         180
 C3:80F7H         LINE#         181
 C3:80F7H         LINE#         183
 C3:8114H         LINE#         185
 C3:8114H         LINE#         186
 C3:811BH         LINE#         187
 C3:811FH         LINE#         188
 C3:811FH         LINE#         190
 C3:812EH         LINE#         191
 C3:812EH         LINE#         192
 C3:8135H         LINE#         193
 C3:813CH         LINE#         195
 C3:8141H         LINE#         196
 C3:8146H         LINE#         197
 C3:814BH         LINE#         199
 C3:8152H         LINE#         200
 C3:8156H         LINE#         201
 C3:815CH         LINE#         202
BL51 BANKED LINKER/LOCATER V6.22            10/13/2015  11:10:35  PAGE 174


 C3:815FH         LINE#         203
 C3:815FH         LINE#         205
 C3:8180H         LINE#         206
 C3:8180H         LINE#         207
 C3:818AH         LINE#         208
 C3:8191H         LINE#         210
 C3:81AAH         LINE#         211
 C3:81AAH         LINE#         212
 C3:81AAH         LINE#         213
 C3:81B6H         LINE#         214
 C3:81C3H         LINE#         215
 C3:81DBH         LINE#         216
 C3:81DDH         LINE#         218
 C3:81DDH         LINE#         219
 C3:81E3H         LINE#         220
 C3:81EDH         LINE#         221
 C3:81F3H         LINE#         222
 C3:81F5H         LINE#         224
 C3:81F5H         LINE#         225
 C3:81FDH         LINE#         227
 C3:81FDH         LINE#         228
 C3:8207H         LINE#         229
 C3:820CH         LINE#         230
 C3:821CH         LINE#         231
 C3:821CH         LINE#         232
 C3:821EH         LINE#         233
 C3:8221H         LINE#         234
 C3:8224H         LINE#         236
 C3:8228H         LINE#         237
 C3:822FH         LINE#         238
 C3:822FH         LINE#         239
 C3:8232H         LINE#         241
 C3:8232H         LINE#         242
 C3:8235H         LINE#         243
 C3:8235H         LINE#         244
 C3:823CH         LINE#         246
 C3:823EH         LINE#         247
 C3:823EH         LINE#         248
 C3:8241H         LINE#         250
 C3:8247H         LINE#         251
 C3:8249H         LINE#         252
 C3:8249H         LINE#         253
 C3:8250H         LINE#         254
 C3:8250H         LINE#         255
 C3:825AH         LINE#         257
 C3:825CH         LINE#         258
 C3:825CH         LINE#         260
 C3:825CH         LINE#         261
 C3:825CH         LINE#         262
 C3:825CH         LINE#         263
 C3:825CH         LINE#         264
 C3:825CH         LINE#         265
 C3:825CH         LINE#         267
 C3:825CH         LINE#         268
 C3:825CH         LINE#         269
 C3:825FH         LINE#         270
 C3:8262H         LINE#         271
 C3:8274H         LINE#         272
 C3:8274H         LINE#         273
 C3:8274H         LINE#         274
 C3:8274H         LINE#         276
 C3:8277H         LINE#         279
 C3:827DH         LINE#         282
 C3:8283H         LINE#         285
 C3:8286H         LINE#         286
BL51 BANKED LINKER/LOCATER V6.22            10/13/2015  11:10:35  PAGE 175


  -------         ENDPROC       AUTOMAT_GPRS_GLOB
 C3:8557H         SYMBOL        L?0115
 C3:8562H         SYMBOL        L?0122

  -------         PROC BANK=3   AUTOMAT_GPRS_IN
  -------         DO            
  D:0007H         SYMBOL        c
  -------         ENDDO         
 C3:82C7H         LINE#         288
 C3:82C7H         LINE#         289
 C3:82C7H         LINE#         292
 C3:82D1H         LINE#         294
 C3:82D9H         LINE#         295
 C3:82D9H         LINE#         296
 C3:82DCH         LINE#         298
 C3:8305H         LINE#         299
 C3:8305H         LINE#         300
 C3:8305H         LINE#         301
 C3:8305H         LINE#         302
 C3:8313H         LINE#         303
 C3:8313H         LINE#         304
 C3:831CH         LINE#         305
 C3:831CH         LINE#         306
 C3:831EH         LINE#         307
 C3:831FH         LINE#         308
 C3:831FH         LINE#         309
 C3:8333H         LINE#         310
 C3:8336H         LINE#         312
 C3:8336H         LINE#         313
 C3:833FH         LINE#         314
 C3:833FH         LINE#         315
 C3:8353H         LINE#         316
 C3:835CH         LINE#         318
 C3:8370H         LINE#         319
 C3:8370H         LINE#         320
 C3:8377H         LINE#         321
 C3:837DH         LINE#         322
 C3:837DH         LINE#         323
 C3:8385H         LINE#         324
 C3:838BH         LINE#         325
 C3:8391H         LINE#         326
 C3:8391H         LINE#         327
 C3:8391H         LINE#         328
 C3:8391H         LINE#         329
 C3:8396H         LINE#         330
 C3:8396H         LINE#         331
 C3:8397H         LINE#         333
 C3:8397H         LINE#         334
 C3:83A5H         LINE#         335
 C3:83A5H         LINE#         336
 C3:83B1H         LINE#         337
 C3:83B1H         LINE#         339
 C3:83B1H         LINE#         340
 C3:83B1H         LINE#         341
 C3:83B8H         LINE#         342
 C3:83B9H         LINE#         343
 C3:83B9H         LINE#         344
 C3:83C2H         LINE#         345
 C3:83C2H         LINE#         346
 C3:83D6H         LINE#         347
 C3:83D6H         LINE#         348
 C3:83E5H         LINE#         349
 C3:83FDH         LINE#         350
 C3:83FFH         LINE#         352
 C3:841AH         LINE#         353
BL51 BANKED LINKER/LOCATER V6.22            10/13/2015  11:10:35  PAGE 176


 C3:841AH         LINE#         354
 C3:8421H         LINE#         355
 C3:8421H         LINE#         356
 C3:8421H         LINE#         357
 C3:8423H         LINE#         358
 C3:8423H         LINE#         359
 C3:8430H         LINE#         360
 C3:8430H         LINE#         361
 C3:8437H         LINE#         362
 C3:8439H         LINE#         363
 C3:843CH         LINE#         364
 C3:8442H         LINE#         365
 C3:8442H         LINE#         366
 C3:8447H         LINE#         367
 C3:8448H         LINE#         369
 C3:8448H         LINE#         370
 C3:844EH         LINE#         381
 C3:844FH         LINE#         383
 C3:844FH         LINE#         384
 C3:8454H         LINE#         385
 C3:8454H         LINE#         386
 C3:8457H         LINE#         387
 C3:8457H         LINE#         388
 C3:8457H         LINE#         389
 C3:845AH         LINE#         390
 C3:845AH         LINE#         391
 C3:8461H         LINE#         392
 C3:8467H         LINE#         393
 C3:8476H         LINE#         394
 C3:8476H         LINE#         395
 C3:8495H         LINE#         396
 C3:8495H         LINE#         397
 C3:8499H         LINE#         402
 C3:849FH         LINE#         403
 C3:84A0H         LINE#         404
 C3:84A0H         LINE#         405
 C3:84A0H         LINE#         406
 C3:84ACH         LINE#         407
 C3:84ACH         LINE#         408
 C3:84AEH         LINE#         409
 C3:84AFH         LINE#         410
 C3:84AFH         LINE#         411
 C3:84AFH         LINE#         413
 C3:84AFH         LINE#         414
 C3:84B5H         LINE#         415
 C3:84BCH         LINE#         416
 C3:84CCH         LINE#         417
 C3:84CCH         LINE#         418
 C3:84DFH         LINE#         419
 C3:84E6H         LINE#         420
 C3:84E8H         LINE#         421
 C3:84EBH         LINE#         422
 C3:84F0H         LINE#         423
 C3:84F0H         LINE#         424
 C3:84F1H         LINE#         426
 C3:84F1H         LINE#         427
 C3:84F1H         LINE#         428
 C3:84F1H         LINE#         431
 C3:84F1H         LINE#         433
 C3:84F8H         LINE#         434
 C3:84F8H         LINE#         435
 C3:8500H         LINE#         436
 C3:8500H         LINE#         437
 C3:851FH         LINE#         438
 C3:852AH         LINE#         439
BL51 BANKED LINKER/LOCATER V6.22            10/13/2015  11:10:35  PAGE 177


 C3:852DH         LINE#         440
 C3:8534H         LINE#         441
 C3:8537H         LINE#         442
 C3:8538H         LINE#         443
 C3:853AH         LINE#         445
 C3:853AH         LINE#         446
 C3:853AH         LINE#         448
 C3:8541H         LINE#         449
 C3:8541H         LINE#         450
 C3:8545H         LINE#         458
 C3:8549H         LINE#         459
 C3:854CH         LINE#         460
 C3:8551H         LINE#         461
 C3:8556H         LINE#         462
 C3:8556H         LINE#         463
  -------         ENDPROC       AUTOMAT_GPRS_IN

  -------         PROC BANK=3   AUTOMAT_GPRS_OUT
 C3:8CCEH         LINE#         465
 C3:8CCEH         LINE#         466
 C3:8CCEH         LINE#         467
 C3:8CD5H         LINE#         469
 C3:8CD5H         LINE#         470
 C3:8CDCH         LINE#         471
 C3:8CDCH         LINE#         472
 C3:8CDCH         LINE#         473
 C3:8CEAH         LINE#         474
 C3:8CF0H         LINE#         475
 C3:8CF9H         LINE#         478
 C3:8CF9H         LINE#         493
 C3:8CF9H         LINE#         494
 C3:8CFCH         LINE#         495
 C3:8CFCH         LINE#         496
 C3:8CFFH         LINE#         497
 C3:8D05H         LINE#         498
 C3:8D05H         LINE#         499
 C3:8D05H         LINE#         500
 C3:8D05H         LINE#         501
 C3:8D05H         LINE#         502
  -------         ENDPROC       AUTOMAT_GPRS_OUT
  -------         ENDMOD        GPRS

  -------         MODULE        HTTP
  C:0000H         SYMBOL        _ICE_DUMMY_
  D:0080H         PUBLIC        P0
  D:0090H         PUBLIC        P1
  D:00A0H         PUBLIC        P2
  D:00B0H         PUBLIC        P3
  X:16CCH         PUBLIC        cntPacInFrame
  D:00C8H         PUBLIC        P4
  D:00D8H         PUBLIC        P5
  D:00E8H         PUBLIC        P6
  D:00F8H         PUBLIC        P7
  D:0084H         PUBLIC        SFRPAGE
  C:6692H         PUBLIC        http_header
 C3:8B67H         PUBLIC        IOStreamConf
 C3:856DH         SYMBOL        _formingHTTPContent
 C3:885EH         PUBLIC        automat_http
  C:201AH         PUBLIC        http_req_str
  D:0088H         PUBLIC        CPT1CN
  X:16CDH         PUBLIC        StateHTTP
  C:66A6H         PUBLIC        http_body
  X:16CEH         PUBLIC        buf_http
 C3:86F1H         PUBLIC        formingHTTPHeaders
 C3:8AD0H         SYMBOL        Com0048
BL51 BANKED LINKER/LOCATER V6.22            10/13/2015  11:10:35  PAGE 178


 C3:8AD0H         SYMBOL        L?0073
 C3:8AD4H         SYMBOL        L?0074
 C3:8AF5H         SYMBOL        L?0076
 C3:8AF5H         SYMBOL        L?0077
 C3:8B13H         SYMBOL        L?0078
 C3:8B13H         SYMBOL        L?0079
 C3:8B2DH         SYMBOL        L?0081
 C3:8B2DH         SYMBOL        L?0082
 C3:8B3EH         SYMBOL        L?0084
 C3:8B43H         SYMBOL        L?0085
 C3:8B4CH         SYMBOL        L?0086
 C3:8B5CH         SYMBOL        L?0089
  -------         PROC          COM0048
  -------         ENDPROC       COM0048
 C3:89B4H         SYMBOL        L?0087

  -------         PROC BANK=3   AUTOMAT_HTTP
 C3:885EH         LINE#         79
 C3:885EH         LINE#         80
 C3:885EH         LINE#         81
 C3:8868H         LINE#         83
 C3:8888H         LINE#         84
 C3:8888H         LINE#         85
 C3:8888H         LINE#         86
 C3:8897H         LINE#         87
 C3:8897H         LINE#         88
 C3:88ACH         LINE#         89
 C3:88ADH         LINE#         90
 C3:88ADH         LINE#         91
 C3:88B4H         LINE#         94
 C3:88BEH         LINE#         96
 C3:88D1H         LINE#         97
 C3:88DBH         LINE#         98
 C3:88DBH         LINE#         100
 C3:88EDH         LINE#         101
 C3:88EDH         LINE#         102
 C3:88F7H         LINE#         103
 C3:88FAH         LINE#         104
 C3:88FDH         LINE#         105
 C3:8903H         LINE#         106
 C3:890AH         LINE#         108
 C3:890FH         LINE#         109
 C3:8914H         LINE#         110
 C3:8917H         LINE#         112
 C3:891DH         LINE#         113
 C3:891DH         LINE#         114
 C3:891DH         LINE#         115
 C3:891EH         LINE#         116
 C3:891EH         LINE#         117
 C3:8932H         LINE#         118
 C3:8932H         LINE#         119
 C3:8938H         LINE#         120
 C3:893BH         LINE#         122
 C3:893DH         LINE#         123
 C3:8940H         LINE#         127
 C3:8946H         LINE#         128
 C3:8946H         LINE#         129
 C3:8947H         LINE#         131
 C3:8947H         LINE#         132
 C3:894EH         LINE#         133
 C3:894EH         LINE#         134
 C3:8955H         LINE#         135
 C3:895BH         LINE#         136
 C3:8965H         LINE#         137
 C3:896BH         LINE#         138
BL51 BANKED LINKER/LOCATER V6.22            10/13/2015  11:10:35  PAGE 179


 C3:8976H         LINE#         139
 C3:8976H         LINE#         140
 C3:8980H         LINE#         141
 C3:8985H         LINE#         142
 C3:8989H         LINE#         143
 C3:898BH         LINE#         145
 C3:8991H         LINE#         148
 C3:8996H         LINE#         149
 C3:899BH         LINE#         151
 C3:899EH         LINE#         152
 C3:89A0H         LINE#         153
 C3:89A0H         LINE#         154
 C3:89A1H         LINE#         156
 C3:89A1H         LINE#         157
 C3:89ACH         LINE#         158
 C3:89ADH         LINE#         160
 C3:89ADH         LINE#         161
 C3:89B3H         LINE#         162
 C3:89B3H         LINE#         163
 C3:89B3H         LINE#         164
  -------         ENDPROC       AUTOMAT_HTTP

  -------         PROC BANK=3   IOSTREAMCONF
  -------         DO            
  D:0007H         SYMBOL        c
  -------         ENDDO         
 C3:8B67H         LINE#         166
 C3:8B67H         LINE#         167
 C3:8B67H         LINE#         170
 C3:8B6FH         LINE#         171
 C3:8B72H         LINE#         172
 C3:8B7BH         LINE#         173
 C3:8B7BH         LINE#         174
 C3:8B81H         LINE#         175
 C3:8B81H         LINE#         176
 C3:8B88H         LINE#         177
 C3:8B90H         LINE#         179
 C3:8B90H         LINE#         180
 C3:8B96H         LINE#         181
 C3:8B98H         LINE#         183
 C3:8BA2H         LINE#         185
 C3:8BBBH         LINE#         186
 C3:8BE9H         LINE#         187
 C3:8BF4H         LINE#         188
  -------         ENDPROC       IOSTREAMCONF

  -------         PROC BANK=3   FORMINGHTTPHEADERS
  -------         DO            
  D:0029H         SYMBOL        i
  X:1BC4H         SYMBOL        g
  X:1BC5H         SYMBOL        S
  X:1BC6H         SYMBOL        L
  X:1BC8H         SYMBOL        LengContext
  B:0026H.5       SYMBOL        flInside
  -------         ENDDO         
 C3:86F1H         LINE#         260
 C3:86F1H         LINE#         261
 C3:86F1H         LINE#         265
 C3:86FFH         LINE#         266
 C3:8701H         LINE#         269
 C3:8710H         LINE#         270
 C3:8740H         LINE#         272
 C3:8746H         LINE#         274
 C3:875CH         LINE#         275
 C3:875CH         LINE#         276
BL51 BANKED LINKER/LOCATER V6.22            10/13/2015  11:10:35  PAGE 180


 C3:876AH         LINE#         277
 C3:876AH         LINE#         278
 C3:876AH         LINE#         279
 C3:8777H         LINE#         280
 C3:8777H         LINE#         281
 C3:877FH         LINE#         282
 C3:877FH         LINE#         283
 C3:8782H         LINE#         285
 C3:8790H         LINE#         286
 C3:8790H         LINE#         287
 C3:87A1H         LINE#         288
 C3:87C3H         LINE#         289
 C3:87CBH         LINE#         290
 C3:87CDH         LINE#         291
 C3:87CFH         LINE#         293
 C3:87D1H         LINE#         294
 C3:87E4H         LINE#         295
 C3:87E4H         LINE#         296
 C3:87E6H         LINE#         298
 C3:87ECH         LINE#         299
 C3:87F7H         LINE#         300
 C3:87F7H         LINE#         302
 C3:87F7H         LINE#         303
 C3:8801H         LINE#         304
 C3:8801H         LINE#         305
 C3:8808H         LINE#         306
 C3:8808H         LINE#         307
 C3:881EH         LINE#         308
 C3:8820H         LINE#         310
 C3:8826H         LINE#         311
 C3:8831H         LINE#         312
 C3:8831H         LINE#         314
 C3:8831H         LINE#         315
 C3:884CH         LINE#         316
 C3:884CH         LINE#         317
 C3:884CH         LINE#         318
 C3:8855H         LINE#         320
 C3:885DH         LINE#         321
  -------         ENDPROC       FORMINGHTTPHEADERS
 C3:8647H         SYMBOL        L?0071
 C3:867DH         SYMBOL        L?0075
 C3:86B6H         SYMBOL        L?0080
 C3:86D5H         SYMBOL        L?0083
 C3:86E5H         SYMBOL        L?0088

  -------         PROC BANK=3   _FORMINGHTTPCONTENT
  D:002BH         SYMBOL        pBuff
  D:0004H         SYMBOL        lengh
  -------         DO            
  X:1BCAH         SYMBOL        Buff
  X:1BE3H         SYMBOL        L
  -------         ENDDO         
 C3:856DH         LINE#         323
 C3:8573H         LINE#         324
 C3:8573H         LINE#         328
 C3:857CH         LINE#         330
 C3:858BH         LINE#         331
 C3:85ABH         LINE#         332
 C3:85B4H         LINE#         334
 C3:85BAH         LINE#         335
 C3:85C6H         LINE#         337
 C3:85D8H         LINE#         339
 C3:85E7H         LINE#         340
 C3:85EEH         LINE#         341
 C3:85F9H         LINE#         342
BL51 BANKED LINKER/LOCATER V6.22            10/13/2015  11:10:35  PAGE 181


 C3:860FH         LINE#         343
 C3:8612H         LINE#         344
 C3:8618H         LINE#         345
 C3:861BH         LINE#         346
 C3:8621H         LINE#         347
 C3:8624H         LINE#         348
 C3:8627H         LINE#         349
 C3:862AH         LINE#         350
 C3:862DH         LINE#         351
 C3:8637H         LINE#         352
 C3:8640H         LINE#         353
 C3:8646H         LINE#         354
 C3:8646H         LINE#         355
  -------         ENDPROC       _FORMINGHTTPCONTENT
  -------         ENDMOD        HTTP

  -------         MODULE        KOD8
  C:0000H         SYMBOL        _ICE_DUMMY_
  D:0080H         PUBLIC        P0
  D:0090H         PUBLIC        P1
  D:00FFH         PUBLIC        WDTCN
  D:00A0H         PUBLIC        P2
  D:00B0H         PUBLIC        P3
 C1:8A88H         PUBLIC        automat_k8
  D:00C8H         PUBLIC        P4
  D:00D8H         PUBLIC        P5
  D:00E8H         PUBLIC        P6
  D:00F8H         PUBLIC        P7
  X:13BBH         PUBLIC        StateK8
  X:13BCH         PUBLIC        LInK8
  X:13C0H         PUBLIC        LOutK8
  B:00B0H.4       PUBLIC        P3_4
  B:00B0H.7       PUBLIC        P3_7
 C1:94B2H         SYMBOL        _TransmitCommand
  X:13C4H         PUBLIC        timer_k8_res_uart1
  C:6B98H         PUBLIC        K8_START_PAC
  X:13C5H         PUBLIC        BufferToSendData
 C1:9818H         SYMBOL        _ReceiverIteris
 C1:91A1H         SYMBOL        _AnaliseStream
  X:15B9H         PUBLIC        startK8
  X:15BAH         PUBLIC        in_data_K8
 C1:9CC6H         PUBLIC        init_k8
  X:15BBH         PUBLIC        timer_k8_gprs_delay
 C1:9282H         PUBLIC        _cpyIterisData
  X:15BCH         PUBLIC        idnK8
  X:15BDH         PUBLIC        bufK8
  C:20D8H         PUBLIC        K8_TIME0
  C:20D9H         PUBLIC        K8_TIME1
  X:15F3H         PUBLIC        cntK8
  X:15F4H         PUBLIC        StK8
 C1:8C94H         SYMBOL        machineIteris
  X:15F5H         PUBLIC        continueSession
  C:6B9BH         PUBLIC        NOC
  X:15F6H         SYMBOL        IterisAnswer
  X:15F8H         PUBLIC        respondsIteris
  D:0059H         PUBLIC        timer_k8_ms
  X:15F9H         PUBLIC        timer_k8_01
  X:15FAH         PUBLIC        timer0_k8_1
  X:15FBH         PUBLIC        timer1_k8_1
  X:15FCH         PUBLIC        IterisData
  C:20D6H         PUBLIC        K8_ID
  X:1601H         PUBLIC        sendStatusGPRS
  X:1602H         PUBLIC        timer_hang_uart1
 C1:954EH         SYMBOL        _ReceiveStrIteris
  X:1603H         PUBLIC        timer_k8_uart1
BL51 BANKED LINKER/LOCATER V6.22            10/13/2015  11:10:35  PAGE 182


  X:1604H         PUBLIC        BuffIteris
 C1:97B1H         SYMBOL        Com0091
 C1:97B1H         SYMBOL        L?0146
 C1:97B1H         SYMBOL        L?0147
 C1:97B4H         SYMBOL        L?0148
 C1:97BCH         SYMBOL        L?0150
 C1:97BCH         SYMBOL        L?0151
 C1:97BDH         SYMBOL        L?0152
 C1:97C4H         SYMBOL        L?0153
 C1:97D6H         SYMBOL        L?0155
 C1:97E4H         SYMBOL        L?0156
 C1:97E4H         SYMBOL        L?0157
 C1:97EDH         SYMBOL        L?0158
 C1:97EDH         SYMBOL        L?0159
 C1:97F4H         SYMBOL        L?0160
 C1:97F6H         SYMBOL        L?0161
 C1:97FDH         SYMBOL        L?0162
 C1:9807H         SYMBOL        L?0163
 C1:9811H         SYMBOL        L?0164
 C1:9811H         SYMBOL        L?0165
  -------         PROC          COM0091
  -------         ENDPROC       COM0091

  -------         PROC BANK=1   INIT_K8
 C1:9CC6H         LINE#         71
 C1:9CC6H         LINE#         72
 C1:9CC6H         LINE#         74
 C1:9CC8H         LINE#         76
  -------         ENDPROC       INIT_K8
 C1:8C88H         SYMBOL        L?0154

  -------         PROC BANK=1   AUTOMAT_K8
  -------         DO            
  D:0007H         SYMBOL        c1
  D:0028H         SYMBOL        c2
  X:1BC4H         SYMBOL        ret
  -------         ENDDO         
 C1:8A88H         LINE#         85
 C1:8A88H         LINE#         86
 C1:8A88H         LINE#         91
 C1:8ABBH         LINE#         92
 C1:8ABBH         LINE#         93
 C1:8ABBH         LINE#         95
 C1:8AC2H         LINE#         96
 C1:8AC2H         LINE#         97
 C1:8ACBH         LINE#         98
 C1:8ACEH         LINE#         99
 C1:8AD1H         LINE#         100
 C1:8AD6H         LINE#         101
 C1:8AE6H         LINE#         102
 C1:8AE7H         LINE#         103
 C1:8AE7H         LINE#         104
 C1:8AF1H         LINE#         107
 C1:8AFAH         LINE#         109
 C1:8B02H         LINE#         110
 C1:8B09H         LINE#         111
 C1:8B11H         LINE#         112
 C1:8B11H         LINE#         113
 C1:8B12H         LINE#         201
 C1:8B12H         LINE#         202
 C1:8B20H         LINE#         203
 C1:8B21H         LINE#         204
 C1:8B21H         LINE#         205
 C1:8B2BH         LINE#         206
 C1:8B2BH         LINE#         207
BL51 BANKED LINKER/LOCATER V6.22            10/13/2015  11:10:35  PAGE 183


 C1:8B3EH         LINE#         208
 C1:8B3EH         LINE#         209
 C1:8B46H         LINE#         210
 C1:8B46H         LINE#         212
 C1:8B5FH         LINE#         213
 C1:8B62H         LINE#         214
 C1:8B64H         LINE#         215
 C1:8B67H         LINE#         216
 C1:8B6DH         LINE#         217
 C1:8B6DH         LINE#         218
 C1:8B70H         LINE#         219
 C1:8B72H         LINE#         220
 C1:8B7BH         LINE#         221
 C1:8B7BH         LINE#         222
 C1:8B7BH         LINE#         224
 C1:8B7BH         LINE#         225
 C1:8B7BH         LINE#         226
 C1:8B7EH         LINE#         227
 C1:8B82H         LINE#         228
 C1:8B85H         LINE#         229
 C1:8B8EH         LINE#         230
 C1:8B97H         LINE#         231
 C1:8B9DH         LINE#         232
 C1:8BA3H         LINE#         233
 C1:8BA4H         LINE#         235
 C1:8BA4H         LINE#         236
 C1:8BAEH         LINE#         237
 C1:8BAEH         LINE#         238
 C1:8BB5H         LINE#         239
 C1:8BB5H         LINE#         241
 C1:8BB7H         LINE#         242
 C1:8BC4H         LINE#         243
 C1:8BC8H         LINE#         244
 C1:8BCFH         LINE#         246
 C1:8BCFH         LINE#         247
 C1:8BD2H         LINE#         248
 C1:8BE0H         LINE#         249
 C1:8BE0H         LINE#         250
 C1:8BE8H         LINE#         251
 C1:8BE8H         LINE#         253
 C1:8BFCH         LINE#         254
 C1:8C20H         LINE#         255
 C1:8C27H         LINE#         256
 C1:8C27H         LINE#         257
 C1:8C27H         LINE#         258
 C1:8C2CH         LINE#         259
 C1:8C33H         LINE#         260
 C1:8C33H         LINE#         261
 C1:8C37H         LINE#         262
 C1:8C37H         LINE#         263
 C1:8C3EH         LINE#         264
 C1:8C49H         LINE#         265
 C1:8C4FH         LINE#         266
 C1:8C50H         LINE#         267
 C1:8C50H         LINE#         268
 C1:8C50H         LINE#         270
 C1:8C50H         LINE#         271
 C1:8C56H         LINE#         272
 C1:8C56H         LINE#         273
 C1:8C59H         LINE#         274
 C1:8C5BH         LINE#         275
 C1:8C5BH         LINE#         276
 C1:8C5BH         LINE#         277
 C1:8C5BH         LINE#         278
 C1:8C5EH         LINE#         279
BL51 BANKED LINKER/LOCATER V6.22            10/13/2015  11:10:35  PAGE 184


 C1:8C5EH         LINE#         280
 C1:8C65H         LINE#         281
 C1:8C65H         LINE#         282
 C1:8C65H         LINE#         283
 C1:8C67H         LINE#         284
 C1:8C67H         LINE#         285
 C1:8C71H         LINE#         286
 C1:8C74H         LINE#         287
 C1:8C74H         LINE#         289
 C1:8C74H         LINE#         290
 C1:8C74H         LINE#         291
 C1:8C77H         LINE#         292
 C1:8C7AH         LINE#         293
 C1:8C80H         LINE#         294
 C1:8C80H         LINE#         295
 C1:8C81H         LINE#         296
 C1:8C87H         LINE#         297
 C1:8C87H         LINE#         298
 C1:8C87H         LINE#         299
  -------         ENDPROC       AUTOMAT_K8

  -------         PROC BANK=1   _ANALISESTREAM
  D:002AH         SYMBOL        str
  -------         DO            
  B:0027H.5       SYMBOL        flNewData
  D:0056H         SYMBOL        inxBegin
  D:0058H         SYMBOL        CurrentCountPskg
  X:13B0H         SYMBOL        SaveCountPskg
  D:002DH         SYMBOL        strLen
  -------         ENDDO         
 C1:91A1H         LINE#         306
 C1:91A7H         LINE#         307
 C1:91A7H         LINE#         315
 C1:91BFH         LINE#         316
 C1:91C1H         LINE#         317
 C1:91C4H         LINE#         318
 C1:91C4H         LINE#         320
 C1:91D1H         LINE#         321
 C1:91D3H         LINE#         322
 C1:91D6H         LINE#         323
 C1:91D6H         LINE#         325
 C1:91E3H         LINE#         326
 C1:91F4H         LINE#         327
 C1:91F6H         LINE#         328
 C1:91F9H         LINE#         329
 C1:91F9H         LINE#         331
 C1:91FFH         LINE#         332
 C1:920CH         LINE#         333
 C1:921FH         LINE#         334
 C1:9225H         LINE#         335
 C1:9228H         LINE#         336
 C1:922CH         LINE#         337
 C1:922FH         LINE#         338
 C1:922FH         LINE#         340
 C1:9245H         LINE#         341
 C1:925CH         LINE#         342
 C1:9268H         LINE#         343
 C1:9277H         LINE#         344
 C1:927FH         LINE#         345
 C1:927FH         LINE#         346
 C1:927FH         LINE#         347
 C1:9281H         LINE#         348
  -------         ENDPROC       _ANALISESTREAM

  -------         PROC BANK=1   _RECEIVESTRITERIS
BL51 BANKED LINKER/LOCATER V6.22            10/13/2015  11:10:35  PAGE 185


  D:0007H         SYMBOL        Byte
  -------         DO            
  X:13B4H         SYMBOL        Step
  -------         ENDDO         
 C1:954EH         LINE#         350
 C1:954EH         LINE#         351
 C1:954EH         LINE#         355
 C1:955FH         LINE#         356
 C1:955FH         LINE#         358
 C1:955FH         LINE#         359
 C1:9569H         LINE#         361
 C1:9575H         LINE#         362
 C1:9579H         LINE#         363
 C1:9581H         LINE#         364
 C1:9581H         LINE#         365
 C1:9583H         LINE#         367
 C1:9583H         LINE#         369
 C1:958BH         LINE#         370
 C1:959CH         LINE#         371
 C1:95A1H         LINE#         372
 C1:95A3H         LINE#         373
 C1:95A3H         LINE#         375
 C1:95B4H         LINE#         376
 C1:95C9H         LINE#         377
 C1:95CFH         LINE#         378
 C1:95CFH         LINE#         379
 C1:95D1H         LINE#         381
 C1:95D1H         LINE#         382
 C1:95DEH         LINE#         383
 C1:95E0H         LINE#         384
 C1:95E5H         LINE#         385
 C1:95E6H         LINE#         386
 C1:95E6H         LINE#         387
  -------         ENDPROC       _RECEIVESTRITERIS

  -------         PROC BANK=1   _RECEIVERITERIS
  D:0006H         SYMBOL        Answer
  D:0005H         SYMBOL        AnswerTime
  -------         DO            
  X:13B5H         SYMBOL        rStep
  -------         ENDDO         
 C1:9818H         LINE#         390
 C1:9818H         LINE#         392
 C1:9818H         LINE#         395
 C1:9822H         LINE#         396
 C1:9822H         LINE#         397
 C1:9822H         LINE#         398
 C1:9827H         LINE#         399
 C1:982AH         LINE#         400
 C1:9830H         LINE#         401
 C1:9830H         LINE#         402
 C1:9836H         LINE#         403
 C1:983EH         LINE#         404
 C1:983EH         LINE#         405
 C1:984EH         LINE#         406
 C1:9853H         LINE#         407
 C1:9856H         LINE#         408
 C1:9856H         LINE#         409
 C1:9863H         LINE#         410
 C1:986AH         LINE#         411
 C1:986FH         LINE#         412
 C1:9870H         LINE#         413
 C1:9870H         LINE#         414
  -------         ENDPROC       _RECEIVERITERIS

BL51 BANKED LINKER/LOCATER V6.22            10/13/2015  11:10:35  PAGE 186


  -------         PROC BANK=1   _TRANSMITCOMMAND
  D:002AH         SYMBOL        pCmd
  D:002DH         SYMBOL        Answer
  D:002FH         SYMBOL        DelayTime
  D:0030H         SYMBOL        CommandRepeatCount
  -------         DO            
  X:13B6H         SYMBOL        CountCommand
  X:13B7H         SYMBOL        step
  -------         ENDDO         
 C1:94B2H         LINE#         417
 C1:94BCH         LINE#         421
 C1:94BCH         LINE#         425
 C1:94CAH         LINE#         426
 C1:94CAH         LINE#         427
 C1:94CAH         LINE#         428
 C1:94CFH         LINE#         429
 C1:94D2H         LINE#         430
 C1:94D7H         LINE#         431
 C1:94D7H         LINE#         432
 C1:94DAH         LINE#         433
 C1:94E3H         LINE#         434
 C1:94ECH         LINE#         435
 C1:94F2H         LINE#         436
 C1:94F7H         LINE#         437
 C1:94F9H         LINE#         438
 C1:94F9H         LINE#         440
 C1:94FFH         LINE#         441
 C1:9510H         LINE#         442
 C1:9519H         LINE#         443
 C1:9519H         LINE#         445
 C1:952BH         LINE#         446
 C1:9530H         LINE#         447
 C1:9531H         LINE#         448
 C1:9531H         LINE#         449
 C1:953EH         LINE#         450
 C1:9540H         LINE#         451
 C1:9540H         LINE#         452
 C1:9543H         LINE#         453
 C1:9547H         LINE#         454
 C1:954DH         LINE#         455
 C1:954DH         LINE#         456
  -------         ENDPROC       _TRANSMITCOMMAND
 C1:8E69H         SYMBOL        L?0144
 C1:8E83H         SYMBOL        L?0149

  -------         PROC BANK=1   MACHINEITERIS
  -------         DO            
  X:13B8H         SYMBOL        step
  X:13B9H         SYMBOL        Answer
  X:1BC6H         SYMBOL        i
  -------         DO            
  D:0029H         SYMBOL        byte
  -------         ENDDO         
  -------         DO            
  X:1BC5H         SYMBOL        len
  -------         ENDDO         
  -------         ENDDO         
 C1:8C94H         LINE#         458
 C1:8C94H         LINE#         459
 C1:8C94H         LINE#         462
 C1:8C9BH         LINE#         464
 C1:8CB4H         LINE#         465
 C1:8CB4H         LINE#         466
 C1:8CB9H         LINE#         467
 C1:8CBEH         LINE#         468
BL51 BANKED LINKER/LOCATER V6.22            10/13/2015  11:10:35  PAGE 187


 C1:8CD7H         LINE#         469
 C1:8CD9H         LINE#         470
 C1:8CD9H         LINE#         471
 C1:8CDCH         LINE#         472
 C1:8CECH         LINE#         474
 C1:8D1DH         LINE#         475
 C1:8D1DH         LINE#         476
 C1:8D1DH         LINE#         477
 C1:8D2EH         LINE#         478
 C1:8D31H         LINE#         479
 C1:8D3AH         LINE#         480
 C1:8D40H         LINE#         481
 C1:8D43H         LINE#         482
 C1:8D43H         LINE#         483
 C1:8D4AH         LINE#         484
 C1:8D58H         LINE#         485
 C1:8D6AH         LINE#         486
 C1:8D6DH         LINE#         487
 C1:8D6DH         LINE#         488
 C1:8D73H         LINE#         489
 C1:8D76H         LINE#         490
 C1:8D76H         LINE#         491
 C1:8D87H         LINE#         492
 C1:8D90H         LINE#         493
 C1:8D9EH         LINE#         494
 C1:8DA3H         LINE#         495
 C1:8DA5H         LINE#         496
 C1:8DA5H         LINE#         497
 C1:8DB8H         LINE#         498
 C1:8DC2H         LINE#         500
 C1:8DCBH         LINE#         501
 C1:8DCEH         LINE#         502
 C1:8DD1H         LINE#         504
 C1:8DD1H         LINE#         505
 C1:8DD1H         LINE#         506
 C1:8DDCH         LINE#         507
 C1:8DECH         LINE#         508
 C1:8DEFH         LINE#         510
 C1:8DFDH         LINE#         511
 C1:8DFDH         LINE#         512
 C1:8E00H         LINE#         514
 C1:8E00H         LINE#         515
 C1:8E08H         LINE#         516
 C1:8E09H         LINE#         517
 C1:8E0DH         LINE#         518
 C1:8E16H         LINE#         519
 C1:8E25H         LINE#         520
 C1:8E2FH         LINE#         521
 C1:8E36H         LINE#         522
 C1:8E36H         LINE#         523
 C1:8E44H         LINE#         524
 C1:8E47H         LINE#         525
 C1:8E4AH         LINE#         527
 C1:8E4AH         LINE#         528
 C1:8E4CH         LINE#         530
 C1:8E4CH         LINE#         531
 C1:8E53H         LINE#         532
 C1:8E5EH         LINE#         533
 C1:8E61H         LINE#         534
 C1:8E66H         LINE#         535
 C1:8E68H         LINE#         536
 C1:8E68H         LINE#         537
  -------         ENDPROC       MACHINEITERIS

  -------         PROC BANK=1   _CPYITERISDATA
BL51 BANKED LINKER/LOCATER V6.22            10/13/2015  11:10:35  PAGE 188


  D:002EH         SYMBOL        pBf
  -------         DO            
  X:1BE5H         SYMBOL        pSymStart
  X:1BE8H         SYMBOL        pSymEnd
  X:1BEBH         SYMBOL        leng
  X:1BECH         SYMBOL        allLeng
  -------         ENDDO         
 C1:9282H         LINE#         539
 C1:9288H         LINE#         540
 C1:9288H         LINE#         541
 C1:9291H         LINE#         542
 C1:929AH         LINE#         544
 C1:92A1H         LINE#         545
 C1:92A1H         LINE#         546
 C1:92B7H         LINE#         547
 C1:92C2H         LINE#         548
 C1:92C6H         LINE#         549
 C1:92D5H         LINE#         550
 C1:92D7H         LINE#         551
 C1:92E6H         LINE#         552
 C1:9301H         LINE#         553
 C1:9310H         LINE#         554
 C1:9310H         LINE#         555
 C1:9322H         LINE#         556
 C1:932EH         LINE#         557
 C1:9331H         LINE#         558
 C1:9340H         LINE#         559
  -------         ENDPROC       _CPYITERISDATA
  -------         ENDMOD        KOD8

  -------         MODULE        ?BANK?SWITCHING
  C:5FF4H         SEGMENT       ?BANK?SELECT
  D:005FH         SEGMENT       ?BANK?DATA
  C:6000H         SEGMENT       ?BANK?SWITCH
  C:6000H         PUBLIC        ?B_BANK0
  C:6011H         PUBLIC        ?B_BANK1
  C:6022H         PUBLIC        ?B_BANK2
  C:6033H         PUBLIC        ?B_BANK3
  D:005FH         PUBLIC        ?B_CURRENTBANK
  N:0000H         PUBLIC        ?B_FACTOR
  N:0003H         PUBLIC        ?B_MASK
  N:0004H         PUBLIC        ?B_MODE
  N:0004H         PUBLIC        ?B_NBANKS
  N:00FFH         PUBLIC        ?B_RST_BANK
  C:600AH         PUBLIC        ?B_SWITCH0
  C:601BH         PUBLIC        ?B_SWITCH1
  C:602CH         PUBLIC        ?B_SWITCH2
  C:603DH         PUBLIC        ?B_SWITCH3
  C:5FF4H         PUBLIC        _SWITCHBANK
  N:0000H         SYMBOL        ?BANK?SWITCHING
  N:0000H         SYMBOL        ?B_FIRSTBIT
  N:0000H         SYMBOL        ?B_RTX
  N:0000H         SYMBOL        ?B_VAR_BANKING
  D:00E0H         SYMBOL        ACC
  D:00F0H         SYMBOL        B
  N:0044H         SYMBOL        B_SWITCH_SIZE
  C:6000H         SYMBOL        B_SWITCH_START
  N:0004H         SYMBOL        CNT
  D:0083H         SYMBOL        DPH
  D:0082H         SYMBOL        DPL
  B:00A8H.7       SYMBOL        EA
  D:00A8H         SYMBOL        IE
  N:0003H         SYMBOL        MASK
  D:00B1H         SYMBOL        PSBANK
  C:5FFCH         SYMBOL        SWITCH_TAB
BL51 BANKED LINKER/LOCATER V6.22            10/13/2015  11:10:35  PAGE 189


  C:5FF5H         SYMBOL        _SWITCHBANK_A
  -------         ENDMOD        ?BANK?SWITCHING

  -------         MODULE        ?C_STARTUP
  C:674FH         SEGMENT       ?C_C51STARTUP
  I:0060H         SEGMENT       ?STACK
  C:0000H         PUBLIC        ?C_STARTUP
  N:0000H         SYMBOL        IBPSTACK
  N:0100H         SYMBOL        IBPSTACKTOP
  N:0080H         SYMBOL        IDATALEN
  C:6752H         SYMBOL        IDATALOOP
  N:0000H         SYMBOL        PBPSTACK
  N:0000H         SYMBOL        PBPSTACKTOP
  N:0000H         SYMBOL        PDATALEN
  N:0000H         SYMBOL        PDATASTART
  N:0000H         SYMBOL        PPAGE
  N:0000H         SYMBOL        PPAGEENABLE
  D:0081H         SYMBOL        SP
  C:674FH         SYMBOL        STARTUP1
  N:0000H         SYMBOL        XBPSTACK
  N:0000H         SYMBOL        XBPSTACKTOP
  N:0000H         SYMBOL        XDATALEN
  N:0000H         SYMBOL        XDATASTART
  C:0000H         LINE#         85
  C:674FH         LINE#         92
  C:6751H         LINE#         93
  C:6752H         LINE#         94
  C:6753H         LINE#         95
  C:6755H         LINE#         144
  C:6758H         LINE#         147
  C:675BH         LINE#         148
  -------         ENDMOD        ?C_STARTUP

  -------         MODULE        ?C?FPMUL
  C:3AF9H         PUBLIC        ?C?FPMUL
  -------         ENDMOD        ?C?FPMUL

  -------         MODULE        ?C?FPDIV
  C:3C02H         PUBLIC        ?C?FPDIV
  -------         ENDMOD        ?C?FPDIV

  -------         MODULE        ?C?FPCMP
  C:3CA1H         PUBLIC        ?C?FPCMP
  C:3C9FH         PUBLIC        ?C?FPCMP3
  -------         ENDMOD        ?C?FPCMP

  -------         MODULE        ?C?FCAST
  C:3D22H         PUBLIC        ?C?FCASTC
  C:3D1DH         PUBLIC        ?C?FCASTI
  C:3D18H         PUBLIC        ?C?FCASTL
  -------         ENDMOD        ?C?FCAST

  -------         MODULE        ?C?CASTF
  C:3D56H         PUBLIC        ?C?CASTF
  -------         ENDMOD        ?C?CASTF

  -------         MODULE        ?C?COPY
  C:3EA7H         PUBLIC        ?C?COPY
  -------         ENDMOD        ?C?COPY

  -------         MODULE        ?C?CLDPTR
  C:3ECDH         PUBLIC        ?C?CLDPTR
  -------         ENDMOD        ?C?CLDPTR

  -------         MODULE        ?C?CLDOPTR
BL51 BANKED LINKER/LOCATER V6.22            10/13/2015  11:10:35  PAGE 190


  C:3EE6H         PUBLIC        ?C?CLDOPTR
  -------         ENDMOD        ?C?CLDOPTR

  -------         MODULE        ?C?CILDOPTR
  C:3F13H         PUBLIC        ?C?CILDOPTR
  -------         ENDMOD        ?C?CILDOPTR

  -------         MODULE        ?C?CSTPTR
  C:3F46H         PUBLIC        ?C?CSTPTR
  -------         ENDMOD        ?C?CSTPTR

  -------         MODULE        ?C?CSTOPTR
  C:3F58H         PUBLIC        ?C?CSTOPTR
  -------         ENDMOD        ?C?CSTOPTR

  -------         MODULE        ?C?IMUL
  C:3F7AH         PUBLIC        ?C?IMUL
  -------         ENDMOD        ?C?IMUL

  -------         MODULE        ?C?UIDIV
  C:3F8CH         PUBLIC        ?C?UIDIV
  -------         ENDMOD        ?C?UIDIV

  -------         MODULE        ?C?SIDIV
  C:3FE1H         PUBLIC        ?C?SIDIV
  -------         ENDMOD        ?C?SIDIV

  -------         MODULE        ?C?IILDX
  C:4017H         PUBLIC        ?C?IILDX
  -------         ENDMOD        ?C?IILDX

  -------         MODULE        ?C?ILDIX
  C:402DH         PUBLIC        ?C?ILDIX
  -------         ENDMOD        ?C?ILDIX

  -------         MODULE        ?C?LMUL
  C:4043H         PUBLIC        ?C?LMUL
  -------         ENDMOD        ?C?LMUL

  -------         MODULE        ?C?ULDIV
  C:40CEH         PUBLIC        ?C?ULDIV
  -------         ENDMOD        ?C?ULDIV

  -------         MODULE        ?C?SLDIV
  C:6BA7H         PUBLIC        ?C?SLDIV
  -------         ENDMOD        ?C?SLDIV

  -------         MODULE        ?C?LNEG
  C:4160H         PUBLIC        ?C?LNEG
  -------         ENDMOD        ?C?LNEG

  -------         MODULE        ?C?ULCMP
  C:416EH         PUBLIC        ?C?ULCMP
  -------         ENDMOD        ?C?ULCMP

  -------         MODULE        ?C?LSTXDATA
  C:417FH         PUBLIC        ?C?LSTXDATA
  -------         ENDMOD        ?C?LSTXDATA

  -------         MODULE        ?C?LSTKXDATA
  C:418BH         PUBLIC        ?C?LSTKXDATA
  -------         ENDMOD        ?C?LSTKXDATA

  -------         MODULE        ?C?OFFXADD
  C:41BCH         PUBLIC        ?C?OFFXADD
BL51 BANKED LINKER/LOCATER V6.22            10/13/2015  11:10:35  PAGE 191


  -------         ENDMOD        ?C?OFFXADD

  -------         MODULE        ?C?CCASE
  C:41C8H         PUBLIC        ?C?CCASE
  -------         ENDMOD        ?C?CCASE

  -------         MODULE        ?C?ICASE
  C:41EEH         PUBLIC        ?C?ICASE
  -------         ENDMOD        ?C?ICASE

  -------         MODULE        ?C?ICALL
  C:421BH         PUBLIC        ?C?ICALL
  C:421FH         PUBLIC        ?C?ICALL2
  -------         ENDMOD        ?C?ICALL

  -------         MODULE        ?C?LIMUL
  C:4221H         PUBLIC        ?C?LIMUL
  -------         ENDMOD        ?C?LIMUL

  -------         MODULE        TOUPPER
  C:6DADH         PUBLIC        _toupper
  -------         ENDMOD        TOUPPER

  -------         MODULE        STRCAT
  D:0031H         PUBLIC        ?_strcat?BYTE
  C:6AABH         PUBLIC        _strcat
  -------         ENDMOD        STRCAT

  -------         MODULE        STRNCAT
  D:0031H         PUBLIC        ?_strncat?BYTE
  C:686BH         PUBLIC        _strncat
  -------         ENDMOD        STRNCAT

  -------         MODULE        STRNCMP
  D:002FH         PUBLIC        ?_strncmp?BYTE
  C:69DEH         PUBLIC        _strncmp
  -------         ENDMOD        STRNCMP

  -------         MODULE        ?C?STRCPY
  C:431AH         PUBLIC        ?C?STRCPY
  -------         ENDMOD        ?C?STRCPY

  -------         MODULE        STRLEN
  C:6D71H         PUBLIC        _STRLEN
  -------         ENDMOD        STRLEN

  -------         MODULE        STRCHR
  C:5FD8H         PUBLIC        _STRCHR
  -------         ENDMOD        STRCHR

  -------         MODULE        ATOI
  C:640DH         PUBLIC        _atoi
  -------         ENDMOD        ATOI

  -------         MODULE        ?C?MEMSET
  C:4337H         PUBLIC        ?C?MEMSET
  -------         ENDMOD        ?C?MEMSET

  -------         MODULE        ISDIGIT
  C:6DBEH         PUBLIC        _isdigit
  -------         ENDMOD        ISDIGIT

  -------         MODULE        ISSPACE
  C:6D9AH         PUBLIC        _isspace
  -------         ENDMOD        ISSPACE
BL51 BANKED LINKER/LOCATER V6.22            10/13/2015  11:10:35  PAGE 192





INTER-MODULE CROSS-REFERENCE LISTING
------------------------------------


NAME . . . . . . . . . . . . . USAGE    MODULE NAMES
----------------------------------------------------

?B_BANK0 . . . . . . . . . . . CODE;    ?BANK?SWITCHING  
?B_BANK1 . . . . . . . . . . . CODE;    ?BANK?SWITCHING  
?B_BANK2 . . . . . . . . . . . CODE;    ?BANK?SWITCHING  
?B_BANK3 . . . . . . . . . . . CODE;    ?BANK?SWITCHING  
?B_CURRENTBANK . . . . . . . . DATA;    ?BANK?SWITCHING  
?B_FACTOR. . . . . . . . . . . NUMB;    ?BANK?SWITCHING  
?B_MASK. . . . . . . . . . . . NUMB;    ?BANK?SWITCHING  
?B_MODE. . . . . . . . . . . . NUMB;    ?BANK?SWITCHING  
?B_NBANKS. . . . . . . . . . . NUMB;    ?BANK?SWITCHING  
?B_RST_BANK. . . . . . . . . . NUMB;    ?BANK?SWITCHING  
?B_SWITCH0 . . . . . . . . . . CODE;    ?BANK?SWITCHING  
?B_SWITCH1 . . . . . . . . . . CODE;    ?BANK?SWITCHING  ?C_STARTUP  
?B_SWITCH2 . . . . . . . . . . CODE;    ?BANK?SWITCHING  
?B_SWITCH3 . . . . . . . . . . CODE;    ?BANK?SWITCHING  
?C?CASTF . . . . . . . . . . . CODE;    ?C?CASTF  MAIN  SIEM_SMS  
?C?CCASE . . . . . . . . . . . CODE;    ?C?CCASE  DS18B20  INTERRUPT  IO  MAIN
                                          RMODEM  SIEM_SMS  
?C?CILDOPTR. . . . . . . . . . CODE;    ?C?CILDOPTR  IO  
?C?CLDOPTR . . . . . . . . . . CODE;    ?C?CLDOPTR  HTTP  IO  RELE  SIEM_SMS  
                                        STRNCAT  UART  
?C?CLDPTR. . . . . . . . . . . CODE;    ?C?CLDPTR  ATOI  IO  SENSOR  SIEM_SMS 
                                         STRCAT  STRCHR  STRLEN  STRNCAT  STRN
                                        CMP  
?C?COPY. . . . . . . . . . . . CODE;    ?C?COPY  MAIN  
?C?CSTOPTR . . . . . . . . . . CODE;    ?C?CSTOPTR  IO  KOD8  SIEM_SMS  STRNCA
                                        T  
?C?CSTPTR. . . . . . . . . . . CODE;    ?C?CSTPTR  IO  KOD8  SENSOR  SIEM_SMS 
                                         STRCAT  
?C?FCASTC. . . . . . . . . . . CODE;    ?C?FCAST  
?C?FCASTI. . . . . . . . . . . CODE;    ?C?FCAST  MAIN  
?C?FCASTL. . . . . . . . . . . CODE;    ?C?FCAST  SIEM_SMS  
?C?FPCMP . . . . . . . . . . . CODE;    ?C?FPCMP  MAIN  
?C?FPCMP3. . . . . . . . . . . CODE;    ?C?FPCMP  
?C?FPDIV . . . . . . . . . . . CODE;    ?C?FPDIV  MAIN  
?C?FPGETOPN2 . . . . . . . . . CODE;    ?C?FPGETOPN  ?C?FPDIV  ?C?FPMUL  
?C?FPMUL . . . . . . . . . . . CODE;    ?C?FPMUL  MAIN  SIEM_SMS  
?C?FPNANRESULT . . . . . . . . CODE;    ?C?FPGETOPN  ?C?FPDIV  ?C?FPMUL  
?C?FPOVERFLOW. . . . . . . . . CODE;    ?C?FPGETOPN  ?C?FPDIV  ?C?FPMUL  
?C?FPRESULT. . . . . . . . . . CODE;    ?C?FPGETOPN  ?C?FPDIV  ?C?FPMUL  
?C?FPRESULT2 . . . . . . . . . CODE;    ?C?FPGETOPN  ?C?FPDIV  ?C?FPMUL  
?C?FPUNDERFLOW . . . . . . . . CODE;    ?C?FPGETOPN  ?C?FPDIV  ?C?FPMUL  
?C?ICALL . . . . . . . . . . . CODE;    ?C?ICALL  MAIN  
?C?ICALL2. . . . . . . . . . . CODE;    ?C?ICALL  
?C?ICASE . . . . . . . . . . . CODE;    ?C?ICASE  GPRS  MAIN  
?C?IILDX . . . . . . . . . . . CODE;    ?C?IILDX  ADC  GPRS  INTERRUPT  KOD8  
                                        MAIN  UART  
?C?ILDIX . . . . . . . . . . . CODE;    ?C?ILDIX  HTTP  IO  KOD8  MAIN  SIEM_S
                                        MS  UART  
?C?IMUL. . . . . . . . . . . . CODE;    ?C?IMUL  ATOI  IO  SENSOR  
?C?LIMUL . . . . . . . . . . . CODE;    ?C?LIMUL  RELE  SIEM_SMS  
?C?LMUL. . . . . . . . . . . . CODE;    ?C?LMUL  ADC  MAIN  SIEM_SMS  
?C?LNEG. . . . . . . . . . . . CODE;    ?C?LNEG  ?C?CASTF  ?C?FCAST  
?C?LSTKXDATA . . . . . . . . . CODE;    ?C?LSTKXDATA  IO  KOD8  MAIN  
?C?LSTXDATA. . . . . . . . . . CODE;    ?C?LSTXDATA  ADC  ATFLASH  INTERRUPT  
                                        KOD8  MAIN  RELE  SIEM_SMS  
BL51 BANKED LINKER/LOCATER V6.22            10/13/2015  11:10:35  PAGE 193


?C?MEMSET. . . . . . . . . . . CODE;    ?C?MEMSET  HTTP  KOD8  UART  
?C?OFFXADD . . . . . . . . . . CODE;    ?C?OFFXADD  SENSOR  
?C?SIDIV . . . . . . . . . . . CODE;    ?C?SIDIV  SIEM_SMS  
?C?SLDIV . . . . . . . . . . . CODE;    ?C?SLDIV  ADC  SIEM_SMS  
?C?STRCPY. . . . . . . . . . . CODE;    ?C?STRCPY  HTTP  IO  KOD8  
?C?UIDIV . . . . . . . . . . . CODE;    ?C?UIDIV  ?C?SIDIV  ADC  IO  MAIN  
?C?ULCMP . . . . . . . . . . . CODE;    ?C?ULCMP  KOD8  MAIN  RELE  
?C?ULDIV . . . . . . . . . . . CODE;    ?C?ULDIV  ?C?SLDIV  SIEM_SMS  
?C_INITSEGSTART. . . . . . . . CODE;    ** L51 GENERATED **  
?C_START . . . . . . . . . . . CODE;    ?C_INIT  ?C_STARTUP  
?C_STARTUP . . . . . . . . . . CODE;    ?C_STARTUP  MAIN  
?GETFDMASK?BYTE. . . . . . . . DATA;    MAIN  
?PARAM_DEFAULT?BIT . . . . . . BIT;     IO  MAIN  
?_COMP_TELNUM?BYTE . . . . . . DATA;    SIEM_SMS  
?_DO_PACK_TEL_8B_SMS?BYTE. . . DATA;    SIEM_SMS  
?_DO_TXTPACK_T?BYTE. . . . . . DATA;    IO  MAIN  
?_GETTEL_ASCII_TO_SO?BYTE. . . DATA;    SIEM_SMS  IO  
?_GETTEL_ATSO_TO_SO?BYTE . . . DATA;    SIEM_SMS  
?_GETTEL_SO_TO_ASCII?BYTE. . . DATA;    SIEM_SMS  IO  
?_SEND_SMS?BYTE. . . . . . . . DATA;    SIEM_SMS  IO  
?_SETBIT?BIT . . . . . . . . . BIT;     SENSOR  
?_STRCAT?BYTE. . . . . . . . . DATA;    STRCAT  HTTP  KOD8  
?_STRNCAT?BYTE . . . . . . . . DATA;    STRNCAT  HTTP  KOD8  
?_STRNCMP?BYTE . . . . . . . . DATA;    STRNCMP  GPRS  IO  KOD8  SIEM_SMS  
ACCCOUNTER . . . . . . . . . . XDATA;   ADC  
ACC_CRC_RM . . . . . . . . . . XDATA;   RMODEM  
ADCBUFFER. . . . . . . . . . . XDATA;   ADC  MAIN  
ADCINPUT . . . . . . . . . . . XDATA;   ADC  
ADDALARMEVENTS . . . . . . . . XDATA;   MAIN  
ALARMEVENTS. . . . . . . . . . XDATA;   MAIN  
ALARMPOINTNUM. . . . . . . . . XDATA;   MAIN  
ALARMTICKCOUNTER . . . . . . . XDATA;   MAIN  
ALARM_ENABLE . . . . . . . . . BIT;     MAIN  INTERRUPT  IO  SIEM_SMS  
AMOUNTALARMPOINTS. . . . . . . XDATA;   MAIN  
AMOUNTSEARCHPOINTS . . . . . . XDATA;   MAIN  
ANALISELINE. . . . . . . . . . BANK2;   SIEM_SMS  
ANALISE_TEL_NUM. . . . . . . . BANK2;   SIEM_SMS  MAIN  
ATFLASHINT . . . . . . . . . . CODE;    INTERRUPT  
AUTOMAT_ALARM. . . . . . . . . CODE;    MAIN  
AUTOMAT_GPRS_GLOB. . . . . . . BANK3;   GPRS  MAIN  
AUTOMAT_GPRS_IN. . . . . . . . BANK3;   GPRS  
AUTOMAT_GPRS_OUT . . . . . . . BANK3;   GPRS  
AUTOMAT_HTTP . . . . . . . . . BANK3;   HTTP  GPRS  
AUTOMAT_INITSIM. . . . . . . . BANK2;   SIEM_SMS  
AUTOMAT_IO . . . . . . . . . . BANK2;   IO  MAIN  
AUTOMAT_K8 . . . . . . . . . . BANK1;   KOD8  MAIN  
AUTOMAT_LAN. . . . . . . . . . BANK1;   DS18B20  MAIN  
AUTOMAT_LEDS . . . . . . . . . CODE;    MAIN  
AUTOMAT_PERSIMWORK . . . . . . BANK2;   SIEM_SMS  
AUTOMAT_RELE . . . . . . . . . BANK2;   RELE  MAIN  
AUTOMAT_REQUEST. . . . . . . . CODE;    MAIN  
AUTOMAT_RMODEM . . . . . . . . BANK1;   RMODEM  MAIN  
AUTOMAT_SEARCH . . . . . . . . CODE;    MAIN  
AUTOMAT_SENSOR . . . . . . . . BANK2;   SENSOR  MAIN  
AUTOMAT_SMS. . . . . . . . . . BANK2;   IO  
AUTOMAT_SMS_PHONE. . . . . . . BANK2;   SIEM_SMS  IO  
AUTOMAT_VLAN . . . . . . . . . BANK1;   DS18B20  MAIN  
AUTOMAT__RA. . . . . . . . . . CODE;    MAIN  
AUTO_ENABLE. . . . . . . . . . BIT;     MAIN  RMODEM  
BEACON_ENABLE. . . . . . . . . BIT;     MAIN  
BEACON_TIMER . . . . . . . . . XDATA;   MAIN  INTERRUPT  
BIT_DATA0_CRC_8. . . . . . . . BIT;     DS18B20  
BIT_DATA0_TEMP . . . . . . . . BIT;     DS18B20  
BIT_DATA1_CRC_8. . . . . . . . BIT;     DS18B20  
BIT_DATA2_CRC_8. . . . . . . . BIT;     DS18B20  
BL51 BANKED LINKER/LOCATER V6.22            10/13/2015  11:10:35  PAGE 194


BIT_DATA3_CRC_8. . . . . . . . BIT;     DS18B20  
BIT_DATA4_CRC_8. . . . . . . . BIT;     DS18B20  
BIT_DATA5_CRC_8. . . . . . . . BIT;     DS18B20  
BIT_DATA6_CRC_8. . . . . . . . BIT;     DS18B20  
BIT_DATA7_CRC_8. . . . . . . . BIT;     DS18B20  
BIT_DATAX_TEMP . . . . . . . . BIT;     DS18B20  
BIT_DATA_DEVICE. . . . . . . . BIT;     DS18B20  
BIT_DATA_LAN . . . . . . . . . BIT;     DS18B20  INTERRUPT  
BIT_LSB_BYTE_DEVICE. . . . . . BIT;     DS18B20  
BIT_PRIORITY_DEVICE. . . . . . BIT;     DS18B20  
BREAK_GSM_REQ. . . . . . . . . BANK2;   IO  SIEM_SMS  
BTIMER2_2X . . . . . . . . . . BIT;     INTERRUPT  
BUFAF. . . . . . . . . . . . . DATA;    ATFLASH  INTERRUPT  MAIN  
BUFENDAF . . . . . . . . . . . XDATA;   ATFLASH  INTERRUPT  
BUFFERTOSENDDATA . . . . . . . XDATA;   KOD8  
BUFFITERIS . . . . . . . . . . XDATA;   KOD8  
BUFHDRGPRS . . . . . . . . . . XDATA;   GPRS  
BUFINGPRS. . . . . . . . . . . XDATA;   GPRS  
BUFK8. . . . . . . . . . . . . XDATA;   KOD8  
BUFTAILAF. . . . . . . . . . . XDATA;   ATFLASH  INTERRUPT  
BUF_HTTP . . . . . . . . . . . XDATA;   HTTP  GPRS  
BUF_OUT_MAX. . . . . . . . . . XDATA;   GPRS  
BUF_READ_SIM . . . . . . . . . XDATA;   SIEM_SMS  
BUF_RX_MAX . . . . . . . . . . XDATA;   UART  INTERRUPT  
BUF_RX_UART0 . . . . . . . . . XDATA;   UART  INTERRUPT  
BUF_RX_UART1 . . . . . . . . . XDATA;   UART  INTERRUPT  
BUF_TX_UART0 . . . . . . . . . XDATA;   UART  INTERRUPT  
BUF_TX_UART1 . . . . . . . . . XDATA;   UART  INTERRUPT  KOD8  
BUSYCONVERTER. . . . . . . . . BIT;     ADC  
BYTE_OUT . . . . . . . . . . . XDATA;   DS18B20  
CALL_PROGRAM_RESET . . . . . . CODE;    MAIN  SIEM_SMS  
CBUFTXR. . . . . . . . . . . . XDATA;   UART  INTERRUPT  
CBUFTXR1 . . . . . . . . . . . XDATA;   UART  INTERRUPT  KOD8  
CBUFTXW. . . . . . . . . . . . XDATA;   UART  INTERRUPT  SIEM_SMS  
CBUFTXW1 . . . . . . . . . . . XDATA;   UART  INTERRUPT  KOD8  
CHAR . . . . . . . . . . . . . XDATA;   MAIN  ATFLASH  
CHAR_MAX . . . . . . . . . . . XDATA;   UART  RMODEM  
CHECK_GAP_RMODEM . . . . . . . BANK1;   RMODEM  
CLEARBUF_MAX . . . . . . . . . BANK1;   UART  RMODEM  
CLEARBUF_UART0 . . . . . . . . BANK1;   UART  GPRS  KOD8  SIEM_SMS  
CLEARBUF_UART1 . . . . . . . . BANK1;   UART  KOD8  
CMASK. . . . . . . . . . . . . BIT;     MAIN  
CMASK_BUF. . . . . . . . . . . XDATA;   MAIN  
CMASK_CNT. . . . . . . . . . . XDATA;   MAIN  
CNT. . . . . . . . . . . . . . XDATA;   MAIN  HTTP  
CNTHDRGPRS . . . . . . . . . . XDATA;   GPRS  
CNTINGPRS. . . . . . . . . . . XDATA;   GPRS  
CNTINLENGTHGPRS. . . . . . . . XDATA;   GPRS  
CNTK8. . . . . . . . . . . . . XDATA;   KOD8  
CNTOUTGPRS . . . . . . . . . . XDATA;   GPRS  
CNTPACINFRAME. . . . . . . . . XDATA;   HTTP  
CNT_LAN. . . . . . . . . . . . XDATA;   DS18B20  
CNT_RM . . . . . . . . . . . . XDATA;   RMODEM  
CODE_ACCESS_SMS. . . . . . . . XDATA;   SIEM_SMS  IO  
COMMAND_3P . . . . . . . . . . BANK2;   SIEM_SMS  
COMMAND_ATA. . . . . . . . . . BANK2;   SIEM_SMS  
COMMAND_ATAD1. . . . . . . . . BANK2;   SIEM_SMS  
COMMAND_ATAS1. . . . . . . . . BANK2;   SIEM_SMS  
COMMAND_ATH. . . . . . . . . . BANK2;   SIEM_SMS  
COMMAND_ATO. . . . . . . . . . BANK2;   SIEM_SMS  
COMMAND_ATS10. . . . . . . . . BANK2;   SIEM_SMS  
COMMAND_ATS7 . . . . . . . . . BANK2;   SIEM_SMS  
COMMAND_CBST . . . . . . . . . BANK2;   SIEM_SMS  
COMMAND_CGCEREP. . . . . . . . BANK2;   SIEM_SMS  
COMMAND_CGDCONT. . . . . . . . BANK2;   SIEM_SMS  
BL51 BANKED LINKER/LOCATER V6.22            10/13/2015  11:10:35  PAGE 195


COMMAND_CGSMS. . . . . . . . . BANK2;   SIEM_SMS  
COMMAND_CHLD_1 . . . . . . . . BANK2;   SIEM_SMS  
COMMAND_CLIP . . . . . . . . . BANK2;   SIEM_SMS  
COMMAND_CNMI . . . . . . . . . BANK2;   SIEM_SMS  
COMMAND_CPBS_SM. . . . . . . . BANK2;   SIEM_SMS  
COMMAND_CPMS_SM. . . . . . . . BANK2;   SIEM_SMS  
COMMAND_CRC. . . . . . . . . . BANK2;   SIEM_SMS  
COMMAND_E2IPA. . . . . . . . . BANK2;   SIEM_SMS  
COMMAND_E2IPO. . . . . . . . . BANK2;   SIEM_SMS  
COMMAND_E2IPS. . . . . . . . . BANK2;   SIEM_SMS  
COMMAND_E2SMSRI. . . . . . . . BANK2;   SIEM_SMS  
COMMAND_ENAD1. . . . . . . . . BANK2;   SIEM_SMS  
COMMAND_GET_QUALITY_SIGNAL . . BANK2;   SIEM_SMS  
COMMAND_GET_READ_SMS . . . . . BANK2;   SIEM_SMS  
COMMAND_IDSIM. . . . . . . . . BANK2;   SIEM_SMS  
COMMAND_NETWORK_REGISTRATION . BANK2;   SIEM_SMS  
COMMAND_READ_TELSC_SIM . . . . BANK2;   SIEM_SMS  
COMMAND_TEST_NETWORK . . . . . BANK2;   SIEM_SMS  
COM_SPEED. . . . . . . . . . . CODE;    CONFIG  
CONFIG . . . . . . . . . . . . BANK3;   CONFIG  MAIN  
CONFIGOSC. . . . . . . . . . . BANK3;   CONFIG  
CONTEXT_GSM. . . . . . . . . . XDATA;   SIEM_SMS  HTTP  
CONTEXT_LAN. . . . . . . . . . XDATA;   DS18B20  MAIN  
CONTEXT_RM . . . . . . . . . . XDATA;   RMODEM  
CONTINUESESSION. . . . . . . . XDATA;   KOD8  HTTP  
COUNT1S. . . . . . . . . . . . XDATA;   INTERRUPT  
COUNTAUTO. . . . . . . . . . . XDATA;   MAIN  
COUNTSEARCHPOINTS. . . . . . . XDATA;   MAIN  
COUNT_ALL_BUF. . . . . . . . . XDATA;   IO  
COUNT_ATZ. . . . . . . . . . . XDATA;   SIEM_SMS  
COUNT_ERROR_NO_REPLY_FROM_SMS. XDATA;   SIEM_SMS  
COUNT_MEASURE_SENSOR . . . . . XDATA;   SENSOR  
COUNT_P. . . . . . . . . . . . XDATA;   SIEM_SMS  
COUNT_RESTART_CPU. . . . . . . XDATA;   MAIN  IO  
COUNT_RESTART_GSM. . . . . . . XDATA;   MAIN  IO  SIEM_SMS  
COUNT_TEK_BUF. . . . . . . . . XDATA;   IO  
COUNT_TRY_TN . . . . . . . . . XDATA;   SIEM_SMS  
COUNT_UART_DATA. . . . . . . . XDATA;   SIEM_SMS  
COUNT_WORKSMS. . . . . . . . . XDATA;   SIEM_SMS  
CURRENTEVENTS. . . . . . . . . XDATA;   MAIN  INTERRUPT  IO  SIEM_SMS  
CURRENT_SMS_SIGNAL_LEVEL . . . XDATA;   SIEM_SMS  
C_FLAG_SMS_SEND_OUT. . . . . . XDATA;   SIEM_SMS  
C_RELE . . . . . . . . . . . . DATA;    RELE  
DATALOGGER . . . . . . . . . . XDATA;   MAIN  DS18B20  IO  SENSOR  
DATARAM. . . . . . . . . . . . XDATA;   MAIN  
DATARAMPOINTER . . . . . . . . XDATA;   MAIN  
DATA_CRC_8 . . . . . . . . . . DATA;    DS18B20  MAIN  
DATA_IN_LAN. . . . . . . . . . XDATA;   DS18B20  
DAY_TIMER. . . . . . . . . . . XDATA;   MAIN  INTERRUPT  SIEM_SMS  
DEBUG_GPRS_INIT. . . . . . . . BANK3;   GPRS  MAIN  
DEFAULTPROFILE . . . . . . . . BIT;     MAIN  
DELETE_SMS . . . . . . . . . . BANK2;   SIEM_SMS  
D_DATE . . . . . . . . . . . . XDATA;   SIEM_SMS  
FAIL_CNT_RM. . . . . . . . . . XDATA;   RMODEM  
FAIL_RESET_RMODEM. . . . . . . BANK1;   RMODEM  
FASTMODE_RM. . . . . . . . . . BIT;     RMODEM  
FD . . . . . . . . . . . . . . XDATA;   MAIN  
FD_ALARM . . . . . . . . . . . XDATA;   MAIN  
FD_AUTO. . . . . . . . . . . . XDATA;   MAIN  
FD_REQ . . . . . . . . . . . . XDATA;   MAIN  
FILL_BUF_AUTO. . . . . . . . . BANK2;   IO  
FILL_BUF_OLD . . . . . . . . . BANK2;   IO  
FINISHCONVERTADC . . . . . . . BANK1;   ADC  MAIN  
FLAGTX0. . . . . . . . . . . . BIT;     MAIN  GPRS  INTERRUPT  UART  
FLAGTX1. . . . . . . . . . . . BIT;     MAIN  INTERRUPT  KOD8  UART  
BL51 BANKED LINKER/LOCATER V6.22            10/13/2015  11:10:35  PAGE 196


FLASHDUMP. . . . . . . . . . . XDATA;   MAIN  ATFLASH  IO  RELE  SIEM_SMS  
FLOAT. . . . . . . . . . . . . XDATA;   MAIN  
FLOAT1 . . . . . . . . . . . . XDATA;   MAIN  
FORBIDDENALL . . . . . . . . . BIT;     MAIN  INTERRUPT  SIEM_SMS  
FORMINGHTTPHEADERS . . . . . . BANK3;   HTTP  
FREESPI_MAX. . . . . . . . . . BANK1;   UART  
FREE_INPUT_STREAM. . . . . . . BANK1;   RMODEM  
FREE_OUTPUT_STREAM . . . . . . BANK1;   RMODEM  
GETBACK_M. . . . . . . . . . . BIT;     MAIN  SIEM_SMS  
GETFDMASK. . . . . . . . . . . CODE;    MAIN  
GETN . . . . . . . . . . . . . BANK2;   SIEM_SMS  
GETSTATE . . . . . . . . . . . BANK2;   IO  
GET_QUALITY_SIGNAL . . . . . . BANK2;   SIEM_SMS  IO  MAIN  
GET_SOST_RELE. . . . . . . . . BANK2;   RELE  MAIN  
GPRS . . . . . . . . . . . . . XDATA;   GPRS  HTTP  IO  MAIN  SIEM_SMS  
GSM_SIGNAL . . . . . . . . . . XDATA;   MAIN  IO  
GSM_SIGNAL_PREV. . . . . . . . XDATA;   MAIN  
G_DATE . . . . . . . . . . . . XDATA;   SIEM_SMS  
HEADERAF . . . . . . . . . . . DATA;    ATFLASH  INTERRUPT  
HOLDSPI_AF . . . . . . . . . . BANK1;   ATFLASH  
HOLDSPI_MAX. . . . . . . . . . BANK1;   UART  
HTTP_BODY. . . . . . . . . . . CODE;    HTTP  
HTTP_HEADER. . . . . . . . . . CODE;    HTTP  
HTTP_REQ_STR . . . . . . . . . CODE;    HTTP  
I. . . . . . . . . . . . . . . XDATA;   SENSOR  
IDNK8. . . . . . . . . . . . . XDATA;   KOD8  
ID_RM. . . . . . . . . . . . . CODE;    RMODEM  MAIN  
INDEX_SMS. . . . . . . . . . . XDATA;   SIEM_SMS  
INITAF . . . . . . . . . . . . BANK1;   ATFLASH  MAIN  
INITIALIZE_RELE. . . . . . . . BANK2;   RELE  MAIN  
INITIALIZE_SENSOR. . . . . . . BANK2;   SENSOR  MAIN  
INIT_IO. . . . . . . . . . . . BANK2;   IO  MAIN  
INIT_K8. . . . . . . . . . . . BANK1;   KOD8  MAIN  
INIT_LAN . . . . . . . . . . . BANK1;   DS18B20  MAIN  
INIT_LIMITS_DATA . . . . . . . CODE;    MAIN  
INIT_SMS_PHONE . . . . . . . . BANK2;   SIEM_SMS  IO  
INIT_UART0 . . . . . . . . . . BANK1;   UART  MAIN  
INIT_UART1 . . . . . . . . . . BANK1;   UART  MAIN  
INLENGTHGPRS . . . . . . . . . XDATA;   GPRS  
INT. . . . . . . . . . . . . . XDATA;   MAIN  ATFLASH  
IN_DATA. . . . . . . . . . . . XDATA;   GPRS  UART  
IN_DATA_K8 . . . . . . . . . . XDATA;   KOD8  
IOBUFPOINTER . . . . . . . . . XDATA;   MAIN  
IOSTREAMBUF. . . . . . . . . . XDATA;   MAIN  GPRS  HTTP  IO  RMODEM  
IOSTREAMCONF . . . . . . . . . BANK3;   HTTP  
IOSTREAMSTATE. . . . . . . . . XDATA;   MAIN  GPRS  HTTP  IO  RMODEM  
IO_BUF . . . . . . . . . . . . XDATA;   IO  
IO_WHO_SEND_SMS. . . . . . . . XDATA;   IO  MAIN  
ISNONDELETE_SMS. . . . . . . . BANK2;   SIEM_SMS  IO  
IS_NEW_SMS . . . . . . . . . . BANK2;   SIEM_SMS  IO  
IS_NEW_SMS_8BIT. . . . . . . . BANK2;   SIEM_SMS  IO  
IS_SMS_SEND_OUT. . . . . . . . BANK2;   SIEM_SMS  IO  
ITERISDATA . . . . . . . . . . XDATA;   KOD8  
K8_ID. . . . . . . . . . . . . CODE;    KOD8  IO  
K8_START_PAC . . . . . . . . . CODE;    KOD8  
K8_TIME0 . . . . . . . . . . . CODE;    KOD8  IO  
K8_TIME1 . . . . . . . . . . . CODE;    KOD8  IO  
LAN_ERR_COUNT. . . . . . . . . XDATA;   DS18B20  
LAN_TEMPER . . . . . . . . . . XDATA;   DS18B20  MAIN  
LED1_MODE. . . . . . . . . . . CODE;    MAIN  INTERRUPT  
LEDSTAT_MODE . . . . . . . . . CODE;    MAIN  INTERRUPT  
LED_MODE . . . . . . . . . . . CODE;    MAIN  INTERRUPT  
LEN_BUF. . . . . . . . . . . . XDATA;   IO  
LEN_PASW_SMS . . . . . . . . . XDATA;   IO  MAIN  
LEN_READ_DATA. . . . . . . . . XDATA;   IO  
BL51 BANKED LINKER/LOCATER V6.22            10/13/2015  11:10:35  PAGE 197


LEN_TELNUM . . . . . . . . . . XDATA;   SIEM_SMS  
LEN_TELNUM_ASCII . . . . . . . XDATA;   SIEM_SMS  IO  
LIMITSDATA . . . . . . . . . . XDATA;   MAIN  SENSOR  
LINK8. . . . . . . . . . . . . XDATA;   KOD8  INTERRUPT  
LOCK_DATARAM . . . . . . . . . BIT;     MAIN  
LOUTK8 . . . . . . . . . . . . XDATA;   KOD8  
M. . . . . . . . . . . . . . . XDATA;   RMODEM  
MAIN . . . . . . . . . . . . . CODE;    MAIN  ?C_INIT  
MALARM . . . . . . . . . . . . XDATA;   MAIN  
MASKEVENTS . . . . . . . . . . XDATA;   MAIN  
MAUTO. . . . . . . . . . . . . XDATA;   MAIN  
MAX_ISR. . . . . . . . . . . . CODE;    INTERRUPT  
MAX_RECEIVE. . . . . . . . . . BANK1;   UART  RMODEM  
MAX_TRANSMIT . . . . . . . . . BANK1;   UART  RMODEM  
MD_CS. . . . . . . . . . . . . XDATA;   SIEM_SMS  
MD_F_NEED_SEND . . . . . . . . BIT;     SIEM_SMS  
MD_LEN . . . . . . . . . . . . XDATA;   SIEM_SMS  
MD_MODE. . . . . . . . . . . . XDATA;   SIEM_SMS  IO  
MD_NPACK_MOD_INC . . . . . . . XDATA;   SIEM_SMS  
MD_RESETGSM. . . . . . . . . . XDATA;   SIEM_SMS  IO  
MD_WHO_CALL. . . . . . . . . . XDATA;   SIEM_SMS  
MLOGCS . . . . . . . . . . . . XDATA;   MAIN  ATFLASH  
MLOGGER. . . . . . . . . . . . XDATA;   MAIN  
MONTH. . . . . . . . . . . . . CODE;    SIEM_SMS  
MRESULT. . . . . . . . . . . . XDATA;   MAIN  RELE  SENSOR  SIEM_SMS  
MSTATEVLAN . . . . . . . . . . XDATA;   DS18B20  
MSTORE . . . . . . . . . . . . XDATA;   MAIN  
M_DATE . . . . . . . . . . . . XDATA;   SIEM_SMS  
M_LED. . . . . . . . . . . . . XDATA;   INTERRUPT  
NEED_WRITE_TELDC_IX. . . . . . XDATA;   SIEM_SMS  
NOC. . . . . . . . . . . . . . CODE;    KOD8  
NPACK_31_INC . . . . . . . . . XDATA;   IO  
NPACK_32_INC . . . . . . . . . XDATA;   IO  GPRS  
NPACK_33_INC . . . . . . . . . XDATA;   IO  
NPACK_34_INC . . . . . . . . . XDATA;   IO  
NPACK_35_INC . . . . . . . . . XDATA;   IO  
NPACK_36_INC . . . . . . . . . XDATA;   IO  
NPACK_37_INC . . . . . . . . . XDATA;   IO  
NPACK_39_INC . . . . . . . . . XDATA;   IO  
NPACK_3B_INC . . . . . . . . . XDATA;   IO  
NPACK_3D_INC . . . . . . . . . XDATA;   IO  
NPACK_3F_INC . . . . . . . . . XDATA;   IO  
NPACK_43_INC . . . . . . . . . XDATA;   IO  
NPACK_45_INC . . . . . . . . . XDATA;   IO  
NPACK_47_INC . . . . . . . . . XDATA;   IO  
NPACK_49_INC . . . . . . . . . XDATA;   IO  
NPACK_4B_INC . . . . . . . . . XDATA;   IO  
NTICKS . . . . . . . . . . . . XDATA;   MAIN  
N_MEM_BADSMS . . . . . . . . . XDATA;   SIEM_SMS  
N_MEM_SMS. . . . . . . . . . . XDATA;   SIEM_SMS  
OPENDEVICEPROFILE. . . . . . . CODE;    MAIN  
OUTBUFCHANGE . . . . . . . . . BIT;     MAIN  HTTP  
OUTMAXPOINTER1 . . . . . . . . XDATA;   UART  
OUTMAXPOINTER2 . . . . . . . . XDATA;   UART  GPRS  RMODEM  
PARAM_DEFAULT. . . . . . . . . BANK2;   IO  MAIN  
PASW_SMS . . . . . . . . . . . XDATA;   IO  MAIN  
PBUF . . . . . . . . . . . . . DATA;    IO  
PBUF_READ_DATA . . . . . . . . DATA;    IO  SIEM_SMS  
PCHAR. . . . . . . . . . . . . DATA;    MAIN  ATFLASH  HTTP  
PCONTEXT . . . . . . . . . . . DATA;    RMODEM  GPRS  UART  
PEVENTS. . . . . . . . . . . . DATA;    MAIN  
PFD. . . . . . . . . . . . . . DATA;    MAIN  
PFD_MASK . . . . . . . . . . . DATA;    MAIN  
PINT . . . . . . . . . . . . . DATA;    MAIN  
PORT_ADC_LATCH . . . . . . . . XDATA;   MAIN  
BL51 BANKED LINKER/LOCATER V6.22            10/13/2015  11:10:35  PAGE 198


PORT_SENSOR. . . . . . . . . . XDATA;   SENSOR  
PORT_SENSOR_CURRENT. . . . . . XDATA;   SENSOR  IO  MAIN  
PORT_SENSOR_LATCH. . . . . . . XDATA;   SENSOR  MAIN  
PORT_SENSOR_P. . . . . . . . . XDATA;   SENSOR  
POUTBUFFER . . . . . . . . . . DATA;    MAIN  
PPP_LOGIN. . . . . . . . . . . CODE;    SETTING  
PPP_PASSW. . . . . . . . . . . CODE;    SETTING  
PREVIOUSEVENTS . . . . . . . . XDATA;   MAIN  
PTIMEL . . . . . . . . . . . . DATA;    MAIN  
RAA1 . . . . . . . . . . . . . XDATA;   MAIN  
RAA2 . . . . . . . . . . . . . XDATA;   MAIN  
RAA3 . . . . . . . . . . . . . XDATA;   MAIN  
RA_CNT . . . . . . . . . . . . XDATA;   MAIN  
RA_MODE. . . . . . . . . . . . BIT;     MAIN  INTERRUPT  IO  SIEM_SMS  
RA_TMP . . . . . . . . . . . . XDATA;   MAIN  
RDHEADER . . . . . . . . . . . XDATA;   ATFLASH  MAIN  
READAF . . . . . . . . . . . . BANK1;   ATFLASH  MAIN  
READSCRATCHPAD1. . . . . . . . CODE;    MAIN  IO  RELE  SIEM_SMS  
READ_BYTE_UART0. . . . . . . . BANK1;   UART  KOD8  SIEM_SMS  
READ_BYTE_UART0_GPRS . . . . . BANK1;   UART  GPRS  
READ_BYTE_UART1. . . . . . . . BANK1;   UART  KOD8  
READ_NEW_SMS . . . . . . . . . BANK2;   SIEM_SMS  IO  
READ_PORT_SENSOR_CUR . . . . . BANK2;   SENSOR  
RECEIVE_CHAR_MAX . . . . . . . BANK1;   UART  RMODEM  
RECEIVE_SIM. . . . . . . . . . BANK2;   SIEM_SMS  
RELE_LCOUNT. . . . . . . . . . XDATA;   MAIN  INTERRUPT  RELE  
REMOTEIP . . . . . . . . . . . CODE;    SETTING  HTTP  
REMOTEPORT . . . . . . . . . . CODE;    SETTING  HTTP  
RESETSTATE . . . . . . . . . . BANK2;   IO  
RESET_CODE . . . . . . . . . . XDATA;   MAIN  IO  RMODEM  SIEM_SMS  
RESET_STATE_LOG. . . . . . . . CODE;    MAIN  
RESPONDSITERIS . . . . . . . . XDATA;   KOD8  IO  
RESTARTTOLOADER. . . . . . . . BANK2;   SIEM_SMS  IO  RMODEM  
RESTART_PHONE. . . . . . . . . BANK2;   SIEM_SMS  IO  
RESTORESEARCH. . . . . . . . . BIT;     MAIN  
RM_ENABLE. . . . . . . . . . . BIT;     RMODEM  MAIN  
RNEXT. . . . . . . . . . . . . XDATA;   MAIN  
RX_DATA_SIM. . . . . . . . . . XDATA;   SIEM_SMS  
SAVEAMOUNTSEARCHPOINTS . . . . XDATA;   MAIN  
SAVECOUNTSEARCHPOINTS. . . . . XDATA;   MAIN  
SAVEIOBUFPOINTER . . . . . . . XDATA;   MAIN  
SAVEIOSTREAMSTATEOUT . . . . . XDATA;   MAIN  
SAVERDHEADER . . . . . . . . . XDATA;   MAIN  
SAVESEARCH2TIME. . . . . . . . XDATA;   MAIN  
SAVESMS_TAIL . . . . . . . . . XDATA;   MAIN  
SAVESTATESEARCH. . . . . . . . XDATA;   MAIN  
SAVETOFLASH. . . . . . . . . . BANK2;   RELE  
SCOUNT1S . . . . . . . . . . . XDATA;   INTERRUPT  
SCOUNTER . . . . . . . . . . . XDATA;   SIEM_SMS  
SEARCH1_TIME . . . . . . . . . XDATA;   MAIN  
SEARCH2_TIME . . . . . . . . . XDATA;   MAIN  
SEARCHENABLE . . . . . . . . . BIT;     MAIN  IO  RMODEM  
SEC_FOR_NUMTEL . . . . . . . . XDATA;   SIEM_SMS  IO  MAIN  
SENDSTATUSGPRS . . . . . . . . XDATA;   KOD8  HTTP  
SEND_CHAR_UART0. . . . . . . . BANK1;   UART  KOD8  SIEM_SMS  
SEND_CHAR_UART1. . . . . . . . BANK1;   UART  KOD8  
SEND_MAX . . . . . . . . . . . BANK1;   UART  GPRS  MAIN  RMODEM  
SETOSCSLOWMODE . . . . . . . . BANK3;   CONFIG  SIEM_SMS  
SETRDSEARCH. . . . . . . . . . CODE;    MAIN  
SETRDSEARCHRA. . . . . . . . . CODE;    MAIN  
SETUP_A. . . . . . . . . . . . DATA;    SENSOR  
SETUP_T. . . . . . . . . . . . DATA;    SENSOR  
SIM_LINE_TX. . . . . . . . . . XDATA;   SIEM_SMS  
SIM_LINE_TX_LEN. . . . . . . . XDATA;   SIEM_SMS  
SIZEBUF_RX_MAX . . . . . . . . XDATA;   UART  INTERRUPT  
BL51 BANKED LINKER/LOCATER V6.22            10/13/2015  11:10:35  PAGE 199


SIZEBUF_RX_UART0 . . . . . . . XDATA;   UART  INTERRUPT  KOD8  SIEM_SMS  
SIZEBUF_RX_UART1 . . . . . . . XDATA;   UART  INTERRUPT  KOD8  
SIZEOUTGPRS. . . . . . . . . . XDATA;   GPRS  HTTP  
SMS_RECEIVE_BUFFER . . . . . . XDATA;   SIEM_SMS  
SMS_RECEIVE_BUFFER_LEN . . . . XDATA;   SIEM_SMS  
SMS_TAIL . . . . . . . . . . . XDATA;   MAIN  GPRS  HTTP  IO  RMODEM  
SN_RM_INC. . . . . . . . . . . XDATA;   RMODEM  
SN_SMS . . . . . . . . . . . . XDATA;   RMODEM  
STARTCONVERTADC. . . . . . . . BANK1;   ADC  MAIN  
STARTK8. . . . . . . . . . . . XDATA;   KOD8  MAIN  
STATEALARM . . . . . . . . . . XDATA;   MAIN  RMODEM  
STATEGLOBGPRS. . . . . . . . . XDATA;   GPRS  IO  
STATEHTTP. . . . . . . . . . . XDATA;   HTTP  GPRS  
STATEINGPRS. . . . . . . . . . XDATA;   GPRS  
STATEINTAF . . . . . . . . . . DATA;    ATFLASH  INTERRUPT  
STATEK8. . . . . . . . . . . . XDATA;   KOD8  
STATELAN . . . . . . . . . . . XDATA;   DS18B20  MAIN  
STATEOUTGPRS . . . . . . . . . XDATA;   GPRS  
STATEPB. . . . . . . . . . . . XDATA;   IO  SIEM_SMS  
STATEREQUEST . . . . . . . . . XDATA;   MAIN  IO  RMODEM  
STATERM. . . . . . . . . . . . XDATA;   RMODEM  
STATESEARCH. . . . . . . . . . XDATA;   MAIN  IO  RMODEM  
STATESENDSMS . . . . . . . . . XDATA;   MAIN  IO  RMODEM  
STATEVLAN. . . . . . . . . . . DATA;    DS18B20  INTERRUPT  
STATE_INIT_SIM_WK. . . . . . . XDATA;   SIEM_SMS  
STATE_IO_WK. . . . . . . . . . XDATA;   IO  SIEM_SMS  
STATE_PER_SIM_WK . . . . . . . XDATA;   SIEM_SMS  
STATE_SENSOR . . . . . . . . . XDATA;   SENSOR  
STATE_SIM_RX . . . . . . . . . XDATA;   SIEM_SMS  
STATE_SIM_WK . . . . . . . . . XDATA;   SIEM_SMS  
STATE__RA. . . . . . . . . . . XDATA;   MAIN  
STIME_NET. . . . . . . . . . . XDATA;   SIEM_SMS  
STIME_RELE_ON. . . . . . . . . XDATA;   RELE  
STIME_RELE_WORK. . . . . . . . XDATA;   RELE  
STIME_WORK_OS. . . . . . . . . XDATA;   RELE  
STK8 . . . . . . . . . . . . . XDATA;   KOD8  MAIN  SIEM_SMS  
STLAN. . . . . . . . . . . . . XDATA;   DS18B20  MAIN  
STLED. . . . . . . . . . . . . XDATA;   MAIN  INTERRUPT  
STLED1 . . . . . . . . . . . . XDATA;   MAIN  INTERRUPT  
STLEDSTAT. . . . . . . . . . . XDATA;   MAIN  INTERRUPT  
STRM . . . . . . . . . . . . . XDATA;   RMODEM  MAIN  
STRS . . . . . . . . . . . . . XDATA;   SIEM_SMS  
STSYSTEM . . . . . . . . . . . XDATA;   MAIN  GPRS  HTTP  IO  SIEM_SMS  
TEL_NUM. . . . . . . . . . . . XDATA;   SIEM_SMS  IO  
TEMPERATURE_DATA_LSB_18B20 . . XDATA;   DS18B20  
TEMPERATURE_DATA_MSB_18B20 . . XDATA;   DS18B20  
TEST_IN_CS . . . . . . . . . . CODE;    MAIN  
TEST_READ_DATA . . . . . . . . BANK2;   IO  
TEST_READ_MES. . . . . . . . . BANK2;   IO  
THERM. . . . . . . . . . . . . XDATA;   ADC  MAIN  
THERMOMETER. . . . . . . . . . XDATA;   ADC  
TICKCOUNTER. . . . . . . . . . XDATA;   MAIN  
TICK_GPRS. . . . . . . . . . . DATA;    GPRS  INTERRUPT  
TIMEHTTP . . . . . . . . . . . XDATA;   GPRS  HTTP  MAIN  SIEM_SMS  
TIMER0_K8_1. . . . . . . . . . XDATA;   KOD8  INTERRUPT  
TIMER1_K8_1. . . . . . . . . . XDATA;   KOD8  INTERRUPT  
TIMER2INT. . . . . . . . . . . CODE;    INTERRUPT  
TIMER2_10X . . . . . . . . . . XDATA;   INTERRUPT  
TIMER3_VLAN_ISR. . . . . . . . CODE;    INTERRUPT  
TIMERA . . . . . . . . . . . . XDATA;   MAIN  INTERRUPT  
TIMER_GPRS_1 . . . . . . . . . XDATA;   GPRS  
TIMER_GPRS_GLOB. . . . . . . . XDATA;   GPRS  SIEM_SMS  
TIMER_GPRS_IN. . . . . . . . . XDATA;   GPRS  
TIMER_HANG_UART1 . . . . . . . XDATA;   KOD8  INTERRUPT  
TIMER_HTTP_DELAY . . . . . . . XDATA;   GPRS  HTTP  
BL51 BANKED LINKER/LOCATER V6.22            10/13/2015  11:10:35  PAGE 200


TIMER_HTTP_WAIT. . . . . . . . XDATA;   GPRS  HTTP  
TIMER_INSIDE . . . . . . . . . XDATA;   MAIN  INTERRUPT  SIEM_SMS  
TIMER_K8_01. . . . . . . . . . XDATA;   KOD8  INTERRUPT  
TIMER_K8_GPRS_DELAY. . . . . . XDATA;   KOD8  INTERRUPT  
TIMER_K8_MS. . . . . . . . . . DATA;    KOD8  INTERRUPT  
TIMER_K8_RES_UART1 . . . . . . XDATA;   KOD8  INTERRUPT  
TIMER_K8_UART1 . . . . . . . . XDATA;   KOD8  INTERRUPT  
TIMER_TICK . . . . . . . . . . BIT;     MAIN  INTERRUPT  
TIME_NOGPRS. . . . . . . . . . XDATA;   MAIN  INTERRUPT  IO  SIEM_SMS  
TIME_RELE_ON . . . . . . . . . XDATA;   RELE  IO  
TIME_RELE_WORK . . . . . . . . XDATA;   RELE  IO  
TIME_WAIT. . . . . . . . . . . XDATA;   MAIN  
TIME_WAIT_IO . . . . . . . . . XDATA;   MAIN  INTERRUPT  IO  
TIME_WAIT_IO2. . . . . . . . . XDATA;   MAIN  INTERRUPT  IO  
TIME_WAIT_IO3. . . . . . . . . XDATA;   MAIN  INTERRUPT  IO  
TIME_WAIT_LAN. . . . . . . . . XDATA;   MAIN  DS18B20  INTERRUPT  
TIME_WAIT_PHONE_RECEIVE. . . . XDATA;   MAIN  INTERRUPT  
TIME_WAIT_RM . . . . . . . . . XDATA;   RMODEM  INTERRUPT  
TIME_WAIT_SENSOR . . . . . . . XDATA;   SENSOR  INTERRUPT  
TIME_WAIT_SMSPHONE . . . . . . XDATA;   MAIN  INTERRUPT  SIEM_SMS  
TIME_WAIT_SMSPHONE1. . . . . . XDATA;   MAIN  INTERRUPT  SIEM_SMS  
TIME_WAIT_SMSPHONE2. . . . . . XDATA;   MAIN  INTERRUPT  SIEM_SMS  
TIME_WAIT_TEST . . . . . . . . XDATA;   MAIN  INTERRUPT  SIEM_SMS  
TIME_WAIT_TXTSMS . . . . . . . XDATA;   MAIN  INTERRUPT  
TMP_TELNUM . . . . . . . . . . XDATA;   SIEM_SMS  
TMP_TELNUM_ASCII . . . . . . . XDATA;   SIEM_SMS  IO  
TMP_TELNUM_POS . . . . . . . . XDATA;   SIEM_SMS  
TP_ST_RESULT . . . . . . . . . XDATA;   SIEM_SMS  
TX_DATA_UART0. . . . . . . . . XDATA;   UART  KOD8  SIEM_SMS  
TX_DATA_UART1. . . . . . . . . XDATA;   UART  KOD8  
TYPEMESOUT . . . . . . . . . . XDATA;   IO  
UART0_INTR . . . . . . . . . . CODE;    INTERRUPT  
UART1_INTR . . . . . . . . . . CODE;    INTERRUPT  
UKBUF_RX_R_MAX . . . . . . . . XDATA;   UART  
UKBUF_RX_R_UART0 . . . . . . . XDATA;   UART  
UKBUF_RX_R_UART1 . . . . . . . XDATA;   UART  
UKBUF_RX_W_MAX . . . . . . . . XDATA;   UART  INTERRUPT  
UKBUF_RX_W_UART0 . . . . . . . XDATA;   UART  INTERRUPT  
UKBUF_RX_W_UART1 . . . . . . . XDATA;   UART  INTERRUPT  
VLAN . . . . . . . . . . . . . BIT;     DS18B20  MAIN  
VLAN_INT . . . . . . . . . . . BIT;     DS18B20  INTERRUPT  
WAITREADYAF. . . . . . . . . . BANK1;   ATFLASH  
WAITSPI. . . . . . . . . . . . BANK1;   ATFLASH  
WHO_SEND_SMS . . . . . . . . . XDATA;   SIEM_SMS  IO  
WRHEADER . . . . . . . . . . . XDATA;   ATFLASH  IO  MAIN  
WRITEAF. . . . . . . . . . . . BANK1;   ATFLASH  MAIN  
WRITEOUTPUTDATA. . . . . . . . CODE;    MAIN  
WRITESCRATCHPAD1 . . . . . . . CODE;    MAIN  IO  RELE  SIEM_SMS  
_ASKBIT. . . . . . . . . . . . BANK2;   SENSOR  
_ATOI. . . . . . . . . . . . . CODE;    ATOI  GPRS  IO  SIEM_SMS  
_AUTOMAT_SENSOR_N. . . . . . . BANK2;   SENSOR  
_COMMAND_DEL_SMS . . . . . . . BANK2;   SIEM_SMS  
_COMMAND_READ_TELDC_SIM. . . . BANK2;   SIEM_SMS  
_COMP_TELNUM . . . . . . . . . BANK2;   SIEM_SMS  
_CPYITERISDATA . . . . . . . . BANK1;   KOD8  HTTP  
_CRC_8_LAN . . . . . . . . . . BANK1;   DS18B20  MAIN  
_C_ANS_KOM_RX. . . . . . . . . XDATA;   SIEM_SMS  
_C_RELE_DO . . . . . . . . . . XDATA;   RELE  IO  
_DATA_DECODE . . . . . . . . . BANK2;   IO  
_DO_PACK030F . . . . . . . . . BANK2;   IO  MAIN  
_DO_PACK53 . . . . . . . . . . BANK2;   IO  MAIN  
_DO_PACK_TEL_8B_SMS. . . . . . BANK2;   SIEM_SMS  
_DO_TXTPACK_N. . . . . . . . . BANK2;   IO  MAIN  
_DO_TXTPACK_P. . . . . . . . . BANK2;   IO  MAIN  
_DO_TXTPACK_S. . . . . . . . . BANK2;   IO  MAIN  
BL51 BANKED LINKER/LOCATER V6.22            10/13/2015  11:10:35  PAGE 201


_DO_TXTPACK_T. . . . . . . . . BANK2;   IO  MAIN  
_DO_TXTPACK_V. . . . . . . . . BANK2;   IO  MAIN  
_ERR_LAN . . . . . . . . . . . BIT;     DS18B20  INTERRUPT  
_FLAG_HAVE_TAIL. . . . . . . . BIT;     IO  
_FLAG_NEED_DELETE_BADSMS . . . BIT;     SIEM_SMS  
_FLAG_NEED_DELETE_SMS. . . . . BIT;     SIEM_SMS  
_FLAG_NEED_DO_RESTART. . . . . BIT;     IO  MAIN  
_FLAG_NEED_READ_ALL_TELS . . . BIT;     SIEM_SMS  
_FLAG_NEED_SEND_SMS. . . . . . BIT;     SIEM_SMS  IO  
_FLAG_NEED_TO_LOADER . . . . . BIT;     IO  
_FLAG_NEED_WAIT_SR . . . . . . BIT;     SIEM_SMS  
_FLAG_NEW_LINE_SIM . . . . . . BIT;     SIEM_SMS  
_FLAG_NEW_SMS. . . . . . . . . BIT;     SIEM_SMS  
_FLAG_SECBUT_ON. . . . . . . . BIT;     SENSOR  IO  MAIN  RELE  
_FLAG_SEND_LAST_PACK . . . . . BIT;     IO  
_FLAG_SEND_P_LAST_PACK . . . . BIT;     IO  
_FLAG_SMS_SIGNAL_LEVEL_NULL. . BIT;     SIEM_SMS  
_FLAG_TANGENTA . . . . . . . . BIT;     UART  
_FLAG_TEL_READY. . . . . . . . BIT;     SIEM_SMS  IO  
_FLAG_TEL_READY_R. . . . . . . BIT;     SIEM_SMS  IO  
_FULL_BUF_NUM_TEL. . . . . . . BANK2;   SIEM_SMS  IO  
_FULL_BUF_NUM_TEL2 . . . . . . BANK2;   SIEM_SMS  IO  
_F_SMS_ACCEPT_TYPE_8BIT. . . . BIT;     SIEM_SMS  
_F_SMS_NOANSWER. . . . . . . . BIT;     SIEM_SMS  IO  MAIN  
_GETTEL_ASCII_TO_SO. . . . . . BANK2;   SIEM_SMS  IO  
_GETTEL_ATSO_TO_SO . . . . . . BANK2;   SIEM_SMS  
_GETTEL_SO_TO_ASCII. . . . . . BANK2;   SIEM_SMS  IO  
_GET_BYTE_FR_ASCII . . . . . . BANK2;   SIEM_SMS  
_GET_HTTP_TIME . . . . . . . . BANK2;   SIEM_SMS  GPRS  
_GET_NPACK_INC . . . . . . . . BANK2;   IO  GPRS  
_GET_NUM_SMS_FR_ASCII. . . . . BANK2;   SIEM_SMS  
_GET_SN_SMS. . . . . . . . . . BANK1;   RMODEM  
_HEXASCII_TO_HEX . . . . . . . BANK2;   SIEM_SMS  
_HEX_TO_DECASCII_5 . . . . . . BANK2;   IO  HTTP  SIEM_SMS  
_HEX_TO_HEXASCII_HI. . . . . . BANK2;   SIEM_SMS  IO  
_HEX_TO_HEXASCII_LO. . . . . . BANK2;   SIEM_SMS  IO  
_INIT_MAX. . . . . . . . . . . BANK1;   UART  GPRS  RMODEM  
_ISDIGIT . . . . . . . . . . . CODE;    ISDIGIT  ATOI  
_ISSENSCHANGE. . . . . . . . . BANK2;   SENSOR  
_ISSPACE . . . . . . . . . . . CODE;    ISSPACE  ATOI  
_LAN_EXIST . . . . . . . . . . BIT;     DS18B20  INTERRUPT  
_NPACKINC. . . . . . . . . . . BANK2;   IO  GPRS  
_ONLINE. . . . . . . . . . . . BIT;     IO  SIEM_SMS  
_READFLASH . . . . . . . . . . CODE;    MAIN  IO  
_READ_PORT_SENSOR. . . . . . . BANK2;   SENSOR  
_RESET_SENSOR. . . . . . . . . BANK2;   SENSOR  
_SENDSTRINGUART0 . . . . . . . BANK1;   UART  GPRS  
_SENDSTRINGUART1 . . . . . . . BANK1;   UART  KOD8  
_SEND_C_OUT_MAX. . . . . . . . BANK3;   GPRS  HTTP  IO  SIEM_SMS  
_SEND_MODEM. . . . . . . . . . BANK2;   SIEM_SMS  IO  
_SEND_SMS. . . . . . . . . . . BANK2;   SIEM_SMS  IO  
_SEND_STR_SIM. . . . . . . . . BANK2;   SIEM_SMS  
_SENSACTION. . . . . . . . . . BANK2;   SENSOR  
_SENSFRONTTEST . . . . . . . . BANK2;   SENSOR  
_SETBIT. . . . . . . . . . . . BANK2;   SENSOR  
_SETSOB. . . . . . . . . . . . BANK2;   SENSOR  
_SET_COM_SPEED . . . . . . . . BANK3;   CONFIG  SIEM_SMS  
_STRCAT. . . . . . . . . . . . CODE;    STRCAT  HTTP  KOD8  
_STRCHR. . . . . . . . . . . . CODE;    STRCHR  KOD8  
_STRLEN. . . . . . . . . . . . CODE;    STRLEN  HTTP  IO  KOD8  UART  
_STRNCAT . . . . . . . . . . . CODE;    STRNCAT  HTTP  KOD8  
_STRNCMP . . . . . . . . . . . CODE;    STRNCMP  GPRS  IO  KOD8  SIEM_SMS  
_SWITCHBANK. . . . . . . . . . CODE;    ?BANK?SWITCHING  
_TEST_READ_TEXT. . . . . . . . BANK2;   IO  MAIN  
_TEST_TEL_TO_PHONE . . . . . . BANK2;   IO  MAIN  
BL51 BANKED LINKER/LOCATER V6.22            10/13/2015  11:10:35  PAGE 202


_TOUPPER . . . . . . . . . . . CODE;    TOUPPER  IO  
_TSTPHONENUM . . . . . . . . . BANK2;   IO  
_UPRRELE . . . . . . . . . . . BANK2;   RELE  MAIN  
_WRITEFLASH. . . . . . . . . . CODE;    MAIN  IO  
_WRITE_TEL_TO_PHONE. . . . . . BANK2;   SIEM_SMS  MAIN  

Program Size: data=96.6 xdata=7495 code=56494
LINK/LOCATE RUN COMPLETE.  0 WARNING(S),  0 ERROR(S)
